     1 00000000                                 [FORMAT "WCOFF"]
     2 00000000                                 [INSTRSET "i486p"]
     3 00000000                                 [OPTIMIZE 1]
     4 00000000                                 [OPTION 1]
     5 00000000                                 [BITS 32]
     6 00000000                                 	EXTERN	_get_this_color
     7 00000000                                 	EXTERN	_set_color
     8 00000000                                 	EXTERN	_clear
     9 00000000                                 	EXTERN	_Print_Flashing_text
    10 00000000                                 	EXTERN	_print
    11 00000000                                 	EXTERN	_gotoxy
    12 00000000                                 	EXTERN	_printchar
    13 00000000                                 	EXTERN	_getch
    14 00000000                                 [FILE "gobang.c"]
    15                                          [SECTION .data]
    16 00000000                                 _keytable:
    17 00000000 00                              	DB	0
    18 00000001 00                              	DB	0
    19 00000002 21                              	DB	33
    20 00000003 40                              	DB	64
    21 00000004 23                              	DB	35
    22 00000005 24                              	DB	36
    23 00000006 25                              	DB	37
    24 00000007 5E                              	DB	94
    25 00000008 26                              	DB	38
    26 00000009 2A                              	DB	42
    27 0000000A 28                              	DB	40
    28 0000000B 29                              	DB	41
    29 0000000C 5F                              	DB	95
    30 0000000D 2B                              	DB	43
    31 0000000E 08                              	DB	8
    32 0000000F 00                              	DB	0
    33 00000010 51                              	DB	81
    34 00000011 57                              	DB	87
    35 00000012 45                              	DB	69
    36 00000013 52                              	DB	82
    37 00000014 54                              	DB	84
    38 00000015 59                              	DB	89
    39 00000016 55                              	DB	85
    40 00000017 49                              	DB	73
    41 00000018 4F                              	DB	79
    42 00000019 50                              	DB	80
    43 0000001A 7B                              	DB	123
    44 0000001B 7D                              	DB	125
    45 0000001C 0A                              	DB	10
    46 0000001D 00                              	DB	0
    47 0000001E 41                              	DB	65
    48 0000001F 53                              	DB	83
    49 00000020 44                              	DB	68
    50 00000021 46                              	DB	70
    51 00000022 47                              	DB	71
    52 00000023 48                              	DB	72
    53 00000024 4A                              	DB	74
    54 00000025 4B                              	DB	75
    55 00000026 4C                              	DB	76
    56 00000027 3A                              	DB	58
    57 00000028 22                              	DB	34
    58 00000029 00                              	DB	0
    59 0000002A 00                              	DB	0
    60 0000002B 7C                              	DB	124
    61 0000002C 5A                              	DB	90
    62 0000002D 58                              	DB	88
    63 0000002E 43                              	DB	67
    64 0000002F 56                              	DB	86
    65 00000030 42                              	DB	66
    66 00000031 4E                              	DB	78
    67 00000032 4D                              	DB	77
    68 00000033 3C                              	DB	60
    69 00000034 3E                              	DB	62
    70 00000035 3F                              	DB	63
    71 00000036 00                              	DB	0
    72 00000037 2A                              	DB	42
    73 00000038 00                              	DB	0
    74 00000039 20                              	DB	32
    75 0000003A 61                              	DB	97
    76 0000003B 00                              	DB	0
    77 0000003C 00                              	DB	0
    78 0000003D 00                              	DB	0
    79 0000003E 00                              	DB	0
    80 0000003F 00                              	DB	0
    81 00000040 00                              	DB	0
    82 00000041 00                              	DB	0
    83 00000042 00                              	DB	0
    84 00000043 00                              	DB	0
    85 00000044 00                              	DB	0
    86 00000045 00                              	DB	0
    87 00000046 00                              	DB	0
    88 00000047 37                              	DB	55
    89 00000048 38                              	DB	56
    90 00000049 39                              	DB	57
    91 0000004A 2D                              	DB	45
    92 0000004B 34                              	DB	52
    93 0000004C 35                              	DB	53
    94 0000004D 36                              	DB	54
    95 0000004E 2B                              	DB	43
    96 0000004F 31                              	DB	49
    97 00000050 32                              	DB	50
    98 00000051 33                              	DB	51
    99 00000052 30                              	DB	48
   100 00000053 2E                              	DB	46
   101 00000054                                 _keytable1:
   102 00000054 00                              	DB	0
   103 00000055 00                              	DB	0
   104 00000056 31                              	DB	49
   105 00000057 32                              	DB	50
   106 00000058 33                              	DB	51
   107 00000059 34                              	DB	52
   108 0000005A 35                              	DB	53
   109 0000005B 36                              	DB	54
   110 0000005C 37                              	DB	55
   111 0000005D 38                              	DB	56
   112 0000005E 39                              	DB	57
   113 0000005F 30                              	DB	48
   114 00000060 2D                              	DB	45
   115 00000061 3D                              	DB	61
   116 00000062 08                              	DB	8
   117 00000063 00                              	DB	0
   118 00000064 71                              	DB	113
   119 00000065 77                              	DB	119
   120 00000066 65                              	DB	101
   121 00000067 72                              	DB	114
   122 00000068 74                              	DB	116
   123 00000069 79                              	DB	121
   124 0000006A 75                              	DB	117
   125 0000006B 69                              	DB	105
   126 0000006C 6F                              	DB	111
   127 0000006D 70                              	DB	112
   128 0000006E 5B                              	DB	91
   129 0000006F 5D                              	DB	93
   130 00000070 0A                              	DB	10
   131 00000071 00                              	DB	0
   132 00000072 61                              	DB	97
   133 00000073 73                              	DB	115
   134 00000074 64                              	DB	100
   135 00000075 66                              	DB	102
   136 00000076 67                              	DB	103
   137 00000077 68                              	DB	104
   138 00000078 6A                              	DB	106
   139 00000079 6B                              	DB	107
   140 0000007A 6C                              	DB	108
   141 0000007B 3B                              	DB	59
   142 0000007C 27                              	DB	39
   143 0000007D 00                              	DB	0
   144 0000007E 00                              	DB	0
   145 0000007F 5C                              	DB	92
   146 00000080 7A                              	DB	122
   147 00000081 78                              	DB	120
   148 00000082 63                              	DB	99
   149 00000083 76                              	DB	118
   150 00000084 62                              	DB	98
   151 00000085 6E                              	DB	110
   152 00000086 6D                              	DB	109
   153 00000087 2C                              	DB	44
   154 00000088 2E                              	DB	46
   155 00000089 2F                              	DB	47
   156 0000008A 00                              	DB	0
   157 0000008B 2A                              	DB	42
   158 0000008C 00                              	DB	0
   159 0000008D 20                              	DB	32
   160 0000008E 46                              	DB	70
   161 0000008F 00                              	DB	0
   162 00000090 00                              	DB	0
   163 00000091 00                              	DB	0
   164 00000092 00                              	DB	0
   165 00000093 00                              	DB	0
   166 00000094 00                              	DB	0
   167 00000095 00                              	DB	0
   168 00000096 00                              	DB	0
   169 00000097 00                              	DB	0
   170 00000098 00                              	DB	0
   171 00000099 00                              	DB	0
   172 0000009A 00                              	DB	0
   173 0000009B 37                              	DB	55
   174 0000009C 38                              	DB	56
   175 0000009D 39                              	DB	57
   176 0000009E 2D                              	DB	45
   177 0000009F 34                              	DB	52
   178 000000A0 35                              	DB	53
   179 000000A1 36                              	DB	54
   180 000000A2 2B                              	DB	43
   181 000000A3 31                              	DB	49
   182 000000A4 32                              	DB	50
   183 000000A5 33                              	DB	51
   184 000000A6 30                              	DB	48
   185 000000A7 2E                              	DB	46
   186 000000A8                                 	GLOBAL	_gx
   187 000000A8                                 	ALIGNB	4
   188 000000A8                                 _gx:
   189 000000A8 00000000                        	DD	0
   190 000000AC                                 	GLOBAL	_gy
   191 000000AC                                 	ALIGNB	4
   192 000000AC                                 _gy:
   193 000000AC 00000000                        	DD	0
   194 000000B0                                 	GLOBAL	_next
   195 000000B0                                 	ALIGNB	4
   196 000000B0                                 _next:
   197 000000B0 00000000                        	DD	0
   198 000000B4                                 	GLOBAL	_qi
   199 000000B4                                 _qi:
   200 000000B4 40                              	DB	64
   201 000000B5 4F                              	DB	79
   202 000000B6                                 LC0:
   203 000000B6 47 61 6D 65 20 4C 6F 61 64 65   	DB	"Game Loader!!!!!!",0x00
       000000C0 72 21 21 21 21 21 21 00 
   204 000000C8                                 LC1:
   205 000000C8 2D 2D 00                        	DB	"--",0x00
   206 000000CB                                 LC2:
   207 000000CB 2D 00                           	DB	"-",0x00
   208 000000CD                                 LC3:
   209 000000CD 67 6F 62 61 6E 67 20 67 61 6D   	DB	"gobang game v0.1",0x00
       000000D7 65 20 76 30 2E 31 00 
   210 000000DE                                 LC4:
   211 000000DE 20 20 20 62 79 20 6D 69 6E 30   	DB	"   by min0911",0x00
       000000E8 39 31 31 00 
   212 000000EC                                 LC6:
   213 000000EC 77 68 69 74 65 20 77 6F 6E 00   	DB	"white won",0x00
   214 000000F6                                 LC7:
   215 000000F6 0A 00                           	DB	0x0A,0x00
   216 000000F8                                 LC5:
   217 000000F8 42 6C 61 63 6B 20 77 6F 6E 00   	DB	"Black won",0x00
   218                                          [SECTION .text]
   219 00000000                                 	GLOBAL	_gobangMain
   220 00000000                                 _gobangMain:
   221 00000000 55                              	PUSH	EBP
   222 00000001 89 E5                           	MOV	EBP,ESP
   223 00000003 57                              	PUSH	EDI
   224 00000004 56                              	PUSH	ESI
   225 00000005 31 F6                           	XOR	ESI,ESI
   226 00000007 53                              	PUSH	EBX
   227 00000008 E8 [00000000]                   	CALL	_get_this_color
   228 0000000D 6A 0C                           	PUSH	12
   229 0000000F 0F BE F8                        	MOVSX	EDI,AL
   230 00000012 E8 [00000000]                   	CALL	_set_color
   231 00000017 E8 [00000000]                   	CALL	_clear
   232 0000001C 6A 2D                           	PUSH	45
   233 0000001E 6A 05                           	PUSH	5
   234 00000020 68 [000000B6]                   	PUSH	LC0
   235 00000025 E8 [00000000]                   	CALL	_Print_Flashing_text
   236 0000002A 6A 3F                           	PUSH	63
   237 0000002C E8 [00000000]                   	CALL	_set_color
   238 00000031 31 D2                           	XOR	EDX,EDX
   239 00000033 83 C4 14                        	ADD	ESP,20
   240 00000036                                 L11:
   241 00000036 31 DB                           	XOR	EBX,EBX
   242 00000038                                 L10:
   243 00000038 8D 04 13                        	LEA	EAX,DWORD [EBX+EDX*1]
   244 0000003B 43                              	INC	EBX
   245 0000003C 83 FB 12                        	CMP	EBX,18
   246 0000003F C7 04 85 [00000110] 00000000    	MOV	DWORD [_map+EAX*4],0
   247 0000004A 7E EC                           	JLE	L10
   248 0000004C 46                              	INC	ESI
   249 0000004D 83 C2 13                        	ADD	EDX,19
   250 00000050 83 FE 12                        	CMP	ESI,18
   251 00000053 7E E1                           	JLE	L11
   252 00000055 68 [000000C8]                   	PUSH	LC1
   253 0000005A 31 F6                           	XOR	ESI,ESI
   254 0000005C C7 05 [000000A8] 00000000       	MOV	DWORD [_gx],0
   255 00000066 C7 05 [000000AC] 00000000       	MOV	DWORD [_gy],0
   256 00000070 C7 05 [000000B0] 00000000       	MOV	DWORD [_next],0
   257 0000007A E8 [00000000]                   	CALL	_print
   258 0000007F E8 [00000000]                   	CALL	_clear
   259 00000084 5A                              	POP	EDX
   260 00000085                                 L21:
   261 00000085 BB 00000018                     	MOV	EBX,24
   262 0000008A                                 L20:
   263 0000008A 68 [000000CB]                   	PUSH	LC2
   264 0000008F E8 [00000000]                   	CALL	_print
   265 00000094 4B                              	DEC	EBX
   266 00000095 58                              	POP	EAX
   267 00000096 79 F2                           	JNS	L20
   268 00000098 46                              	INC	ESI
   269 00000099 83 FE 4F                        	CMP	ESI,79
   270 0000009C 7E E7                           	JLE	L21
   271 0000009E 6A 0A                           	PUSH	10
   272 000000A0 6A 1E                           	PUSH	30
   273 000000A2 E8 [00000000]                   	CALL	_gotoxy
   274 000000A7 68 [000000CD]                   	PUSH	LC3
   275 000000AC E8 [00000000]                   	CALL	_print
   276 000000B1 6A 0B                           	PUSH	11
   277 000000B3 6A 1E                           	PUSH	30
   278 000000B5 E8 [00000000]                   	CALL	_gotoxy
   279 000000BA 68 [000000DE]                   	PUSH	LC4
   280 000000BF E8 [00000000]                   	CALL	_print
   281 000000C4 83 C4 18                        	ADD	ESP,24
   282 000000C7                                 L45:
   283 000000C7 FF 35 [000000AC]                	PUSH	DWORD [_gy]
   284 000000CD FF 35 [000000A8]                	PUSH	DWORD [_gx]
   285 000000D3 E8 [00000000]                   	CALL	_gotoxy
   286 000000D8 6A 3E                           	PUSH	62
   287 000000DA E8 [00000000]                   	CALL	_printchar
   288 000000DF E8 00000118                     	CALL	_view_map
   289 000000E4 E8 [00000000]                   	CALL	_getch
   290 000000E9 83 C4 0C                        	ADD	ESP,12
   291 000000EC 3C 64                           	CMP	AL,100
   292 000000EE 0F 84 000000F7                  	JE	L57
   293 000000F4 3C 73                           	CMP	AL,115
   294 000000F6 0F 84 000000DE                  	JE	L58
   295 000000FC 3C 77                           	CMP	AL,119
   296 000000FE 0F 84 000000BE                  	JE	L59
   297 00000104 3C 61                           	CMP	AL,97
   298 00000106 0F 84 0000009E                  	JE	L60
   299 0000010C 3C 0A                           	CMP	AL,10
   300 0000010E 74 47                           	JE	L61
   301 00000110                                 L27:
   302 00000110 E8 0000018E                     	CALL	_who_is_win
   303 00000115 48                              	DEC	EAX
   304 00000116 74 33                           	JE	L62
   305 00000118 E8 00000186                     	CALL	_who_is_win
   306 0000011D 83 F8 02                        	CMP	EAX,2
   307 00000120 75 A5                           	JNE	L45
   308 00000122 E8 [00000000]                   	CALL	_clear
   309 00000127 68 [000000EC]                   	PUSH	LC6
   310 0000012C                                 L56:
   311 0000012C E8 [00000000]                   	CALL	_print
   312 00000131 89 3C 24                        	MOV	DWORD [ESP],EDI
   313 00000134 E8 [00000000]                   	CALL	_set_color
   314 00000139 68 [000000F6]                   	PUSH	LC7
   315 0000013E E8 [00000000]                   	CALL	_print
   316 00000143 8D 65 F4                        	LEA	ESP,DWORD [-12+EBP]
   317 00000146 5B                              	POP	EBX
   318 00000147 5E                              	POP	ESI
   319 00000148 5F                              	POP	EDI
   320 00000149 5D                              	POP	EBP
   321 0000014A C3                              	RET
   322 0000014B                                 L62:
   323 0000014B E8 [00000000]                   	CALL	_clear
   324 00000150 68 [000000F8]                   	PUSH	LC5
   325 00000155 EB D5                           	JMP	L56
   326 00000157                                 L61:
   327 00000157 6B 0D [000000AC] 13             	IMUL	ECX,DWORD [_gy],19
   328 0000015E 03 0D [000000A8]                	ADD	ECX,DWORD [_gx]
   329 00000164 8B 04 8D [00000110]             	MOV	EAX,DWORD [_map+ECX*4]
   330 0000016B 48                              	DEC	EAX
   331 0000016C 83 F8 01                        	CMP	EAX,1
   332 0000016F 76 9F                           	JBE	L27
   333 00000171 8B 15 [000000B0]                	MOV	EDX,DWORD [_next]
   334 00000177 85 D2                           	TEST	EDX,EDX
   335 00000179 8D 42 01                        	LEA	EAX,DWORD [1+EDX]
   336 0000017C 89 04 8D [00000110]             	MOV	DWORD [_map+ECX*4],EAX
   337 00000183 75 0F                           	JNE	L39
   338 00000185 C7 05 [000000B0] 00000001       	MOV	DWORD [_next],1
   339 0000018F E9 FFFFFF7C                     	JMP	L27
   340 00000194                                 L39:
   341 00000194 4A                              	DEC	EDX
   342 00000195 0F 85 FFFFFF75                  	JNE	L27
   343 0000019B C7 05 [000000B0] 00000000       	MOV	DWORD [_next],0
   344 000001A5 E9 FFFFFF66                     	JMP	L27
   345 000001AA                                 L60:
   346 000001AA A1 [000000A8]                   	MOV	EAX,DWORD [_gx]
   347 000001AF 85 C0                           	TEST	EAX,EAX
   348 000001B1 0F 8E FFFFFF59                  	JLE	L27
   349 000001B7 48                              	DEC	EAX
   350 000001B8                                 L55:
   351 000001B8 A3 [000000A8]                   	MOV	DWORD [_gx],EAX
   352 000001BD E9 FFFFFF4E                     	JMP	L27
   353 000001C2                                 L59:
   354 000001C2 A1 [000000AC]                   	MOV	EAX,DWORD [_gy]
   355 000001C7 85 C0                           	TEST	EAX,EAX
   356 000001C9 0F 8E FFFFFF41                  	JLE	L27
   357 000001CF 48                              	DEC	EAX
   358 000001D0                                 L54:
   359 000001D0 A3 [000000AC]                   	MOV	DWORD [_gy],EAX
   360 000001D5 E9 FFFFFF36                     	JMP	L27
   361 000001DA                                 L58:
   362 000001DA A1 [000000AC]                   	MOV	EAX,DWORD [_gy]
   363 000001DF 83 F8 11                        	CMP	EAX,17
   364 000001E2 0F 8F FFFFFF28                  	JG	L27
   365 000001E8 40                              	INC	EAX
   366 000001E9 EB E5                           	JMP	L54
   367 000001EB                                 L57:
   368 000001EB A1 [000000A8]                   	MOV	EAX,DWORD [_gx]
   369 000001F0 83 F8 11                        	CMP	EAX,17
   370 000001F3 0F 8F FFFFFF17                  	JG	L27
   371 000001F9 40                              	INC	EAX
   372 000001FA EB BC                           	JMP	L55
   373                                          [SECTION .data]
   374 00000102                                 LC10:
   375 00000102 4F 00                           	DB	"O",0x00
   376 00000104                                 LC9:
   377 00000104 40 00                           	DB	"@",0x00
   378 00000106                                 LC8:
   379 00000106 20 00                           	DB	" ",0x00
   380                                          [SECTION .text]
   381 000001FC                                 	GLOBAL	_view_map
   382 000001FC                                 _view_map:
   383 000001FC 55                              	PUSH	EBP
   384 000001FD 89 E5                           	MOV	EBP,ESP
   385 000001FF 56                              	PUSH	ESI
   386 00000200 53                              	PUSH	EBX
   387 00000201 31 F6                           	XOR	ESI,ESI
   388 00000203 6A 00                           	PUSH	0
   389 00000205 6A 00                           	PUSH	0
   390 00000207 E8 [00000000]                   	CALL	_gotoxy
   391 0000020C 58                              	POP	EAX
   392 0000020D 5A                              	POP	EDX
   393 0000020E                                 L95:
   394 0000020E 31 DB                           	XOR	EBX,EBX
   395 00000210                                 L94:
   396 00000210 A1 [000000A8]                   	MOV	EAX,DWORD [_gx]
   397 00000215 39 C3                           	CMP	EBX,EAX
   398 00000217 74 7C                           	JE	L100
   399 00000219 3B 35 [000000AC]                	CMP	ESI,DWORD [_gy]
   400 0000021F 74 53                           	JE	L116
   401 00000221                                 L115:
   402 00000221 6B C6 13                        	IMUL	EAX,ESI,19
   403 00000224 01 D8                           	ADD	EAX,EBX
   404 00000226 8B 04 85 [00000110]             	MOV	EAX,DWORD [_map+EAX*4]
   405 0000022D 85 C0                           	TEST	EAX,EAX
   406 0000022F 74 3C                           	JE	L117
   407 00000231 83 F8 01                        	CMP	EAX,1
   408 00000234 74 30                           	JE	L118
   409 00000236 83 F8 02                        	CMP	EAX,2
   410 00000239 74 1E                           	JE	L119
   411 0000023B                                 L70:
   412 0000023B 43                              	INC	EBX
   413 0000023C 83 FB 12                        	CMP	EBX,18
   414 0000023F 7E CF                           	JLE	L94
   415 00000241 68 [000000F6]                   	PUSH	LC7
   416 00000246 46                              	INC	ESI
   417 00000247 E8 [00000000]                   	CALL	_print
   418 0000024C 83 FE 12                        	CMP	ESI,18
   419 0000024F 59                              	POP	ECX
   420 00000250 7E BC                           	JLE	L95
   421 00000252 8D 65 F8                        	LEA	ESP,DWORD [-8+EBP]
   422 00000255 5B                              	POP	EBX
   423 00000256 5E                              	POP	ESI
   424 00000257 5D                              	POP	EBP
   425 00000258 C3                              	RET
   426 00000259                                 L119:
   427 00000259 68 [00000102]                   	PUSH	LC10
   428 0000025E                                 L111:
   429 0000025E E8 [00000000]                   	CALL	_print
   430 00000263                                 L103:
   431 00000263 58                              	POP	EAX
   432 00000264 EB D5                           	JMP	L70
   433 00000266                                 L118:
   434 00000266 68 [00000104]                   	PUSH	LC9
   435 0000026B EB F1                           	JMP	L111
   436 0000026D                                 L117:
   437 0000026D 68 [00000106]                   	PUSH	LC8
   438 00000272 EB EA                           	JMP	L111
   439 00000274                                 L116:
   440 00000274 39 C3                           	CMP	EBX,EAX
   441 00000276 74 1D                           	JE	L100
   442 00000278                                 L101:
   443 00000278 3B 35 [000000AC]                	CMP	ESI,DWORD [_gy]
   444 0000027E 74 A1                           	JE	L115
   445 00000280 39 C3                           	CMP	EBX,EAX
   446 00000282 75 B7                           	JNE	L70
   447 00000284                                 L102:
   448 00000284 3B 35 [000000AC]                	CMP	ESI,DWORD [_gy]
   449 0000028A 75 AF                           	JNE	L70
   450 0000028C 6A 3E                           	PUSH	62
   451 0000028E E8 [00000000]                   	CALL	_printchar
   452 00000293 EB CE                           	JMP	L103
   453 00000295                                 L100:
   454 00000295 3B 35 [000000AC]                	CMP	ESI,DWORD [_gy]
   455 0000029B 75 84                           	JNE	L115
   456 0000029D 39 C3                           	CMP	EBX,EAX
   457 0000029F 75 D7                           	JNE	L101
   458 000002A1 EB E1                           	JMP	L102
   459 000002A3                                 	GLOBAL	_who_is_win
   460 000002A3                                 _who_is_win:
   461 000002A3 55                              	PUSH	EBP
   462 000002A4 89 E5                           	MOV	EBP,ESP
   463 000002A6 57                              	PUSH	EDI
   464 000002A7 56                              	PUSH	ESI
   465 000002A8 31 F6                           	XOR	ESI,ESI
   466 000002AA 53                              	PUSH	EBX
   467 000002AB 83 EC 2C                        	SUB	ESP,44
   468 000002AE C7 45 F0 00000000               	MOV	DWORD [-16+EBP],0
   469 000002B5                                 L141:
   470 000002B5 31 DB                           	XOR	EBX,EBX
   471 000002B7                                 L140:
   472 000002B7 6B CE 13                        	IMUL	ECX,ESI,19
   473 000002BA 31 FF                           	XOR	EDI,EDI
   474 000002BC 31 D2                           	XOR	EDX,EDX
   475 000002BE C7 45 EC 00000000               	MOV	DWORD [-20+EBP],0
   476 000002C5                                 L136:
   477 000002C5 8D 04 1A                        	LEA	EAX,DWORD [EDX+EBX*1]
   478 000002C8 8D 04 08                        	LEA	EAX,DWORD [EAX+ECX*1]
   479 000002CB 8B 04 85 [00000110]             	MOV	EAX,DWORD [_map+EAX*4]
   480 000002D2 83 F8 01                        	CMP	EAX,1
   481 000002D5 0F 84 000002D6                  	JE	L277
   482 000002DB 83 F8 02                        	CMP	EAX,2
   483 000002DE 0F 84 000002C5                  	JE	L278
   484 000002E4                                 L131:
   485 000002E4 42                              	INC	EDX
   486 000002E5 83 C1 13                        	ADD	ECX,19
   487 000002E8 83 FA 04                        	CMP	EDX,4
   488 000002EB 7E D8                           	JLE	L136
   489 000002ED 83 FF 05                        	CMP	EDI,5
   490 000002F0 0F 84 000002A7                  	JE	L279
   491 000002F6 83 7D EC 05                     	CMP	DWORD [-20+EBP],5
   492 000002FA 0F 84 00000291                  	JE	L280
   493 00000300 43                              	INC	EBX
   494 00000301 83 FB 12                        	CMP	EBX,18
   495 00000304 7E B1                           	JLE	L140
   496 00000306                                 L123:
   497 00000306 46                              	INC	ESI
   498 00000307 83 FE 12                        	CMP	ESI,18
   499 0000030A 7E A9                           	JLE	L141
   500 0000030C 31 F6                           	XOR	ESI,ESI
   501 0000030E                                 L162:
   502 0000030E 31 DB                           	XOR	EBX,EBX
   503 00000310                                 L161:
   504 00000310 6B CE 13                        	IMUL	ECX,ESI,19
   505 00000313 31 FF                           	XOR	EDI,EDI
   506 00000315 31 D2                           	XOR	EDX,EDX
   507 00000317 C7 45 E8 00000000               	MOV	DWORD [-24+EBP],0
   508 0000031E                                 L157:
   509 0000031E 89 D8                           	MOV	EAX,EBX
   510 00000320 29 D0                           	SUB	EAX,EDX
   511 00000322 8D 04 08                        	LEA	EAX,DWORD [EAX+ECX*1]
   512 00000325 8B 04 85 [00000110]             	MOV	EAX,DWORD [_map+EAX*4]
   513 0000032C 83 F8 01                        	CMP	EAX,1
   514 0000032F 0F 84 00000256                  	JE	L281
   515 00000335 83 F8 02                        	CMP	EAX,2
   516 00000338 0F 84 00000245                  	JE	L282
   517 0000033E                                 L152:
   518 0000033E 42                              	INC	EDX
   519 0000033F 83 C1 13                        	ADD	ECX,19
   520 00000342 83 FA 04                        	CMP	EDX,4
   521 00000345 7E D7                           	JLE	L157
   522 00000347 83 FF 05                        	CMP	EDI,5
   523 0000034A 0F 84 00000227                  	JE	L283
   524 00000350 83 7D E8 05                     	CMP	DWORD [-24+EBP],5
   525 00000354 0F 84 00000211                  	JE	L284
   526 0000035A 43                              	INC	EBX
   527 0000035B 83 FB 12                        	CMP	EBX,18
   528 0000035E 7E B0                           	JLE	L161
   529 00000360                                 L144:
   530 00000360 46                              	INC	ESI
   531 00000361 83 FE 12                        	CMP	ESI,18
   532 00000364 7E A8                           	JLE	L162
   533 00000366 31 F6                           	XOR	ESI,ESI
   534 00000368 C7 45 D0 00000000               	MOV	DWORD [-48+EBP],0
   535 0000036F                                 L183:
   536 0000036F 31 DB                           	XOR	EBX,EBX
   537 00000371                                 L182:
   538 00000371 8B 45 D0                        	MOV	EAX,DWORD [-48+EBP]
   539 00000374 31 FF                           	XOR	EDI,EDI
   540 00000376 C7 45 E4 00000000               	MOV	DWORD [-28+EBP],0
   541 0000037D 31 D2                           	XOR	EDX,EDX
   542 0000037F 8D 0C 18                        	LEA	ECX,DWORD [EAX+EBX*1]
   543 00000382                                 L178:
   544 00000382 8B 04 8D [00000110]             	MOV	EAX,DWORD [_map+ECX*4]
   545 00000389 83 F8 01                        	CMP	EAX,1
   546 0000038C 0F 84 000001D3                  	JE	L285
   547 00000392 83 F8 02                        	CMP	EAX,2
   548 00000395 0F 84 000001C2                  	JE	L286
   549 0000039B                                 L173:
   550 0000039B 42                              	INC	EDX
   551 0000039C 49                              	DEC	ECX
   552 0000039D 83 FA 04                        	CMP	EDX,4
   553 000003A0 7E E0                           	JLE	L178
   554 000003A2 83 FF 05                        	CMP	EDI,5
   555 000003A5 0F 84 000001A6                  	JE	L287
   556 000003AB 83 7D E4 05                     	CMP	DWORD [-28+EBP],5
   557 000003AF 0F 84 00000190                  	JE	L288
   558 000003B5 43                              	INC	EBX
   559 000003B6 83 FB 12                        	CMP	EBX,18
   560 000003B9 7E B6                           	JLE	L182
   561 000003BB                                 L165:
   562 000003BB 46                              	INC	ESI
   563 000003BC 83 45 D0 13                     	ADD	DWORD [-48+EBP],19
   564 000003C0 83 FE 12                        	CMP	ESI,18
   565 000003C3 7E AA                           	JLE	L183
   566 000003C5 31 F6                           	XOR	ESI,ESI
   567 000003C7 C7 45 D4 00000000               	MOV	DWORD [-44+EBP],0
   568 000003CE                                 L204:
   569 000003CE 31 DB                           	XOR	EBX,EBX
   570 000003D0                                 L203:
   571 000003D0 8B 45 D4                        	MOV	EAX,DWORD [-44+EBP]
   572 000003D3 31 FF                           	XOR	EDI,EDI
   573 000003D5 C7 45 E0 00000000               	MOV	DWORD [-32+EBP],0
   574 000003DC 31 D2                           	XOR	EDX,EDX
   575 000003DE 8D 0C 18                        	LEA	ECX,DWORD [EAX+EBX*1]
   576 000003E1                                 L199:
   577 000003E1 8B 04 8D [00000110]             	MOV	EAX,DWORD [_map+ECX*4]
   578 000003E8 83 F8 01                        	CMP	EAX,1
   579 000003EB 0F 84 0000014E                  	JE	L289
   580 000003F1 83 F8 02                        	CMP	EAX,2
   581 000003F4 0F 84 0000013D                  	JE	L290
   582 000003FA                                 L194:
   583 000003FA 42                              	INC	EDX
   584 000003FB 41                              	INC	ECX
   585 000003FC 83 FA 04                        	CMP	EDX,4
   586 000003FF 7E E0                           	JLE	L199
   587 00000401 83 FF 05                        	CMP	EDI,5
   588 00000404 0F 84 00000121                  	JE	L291
   589 0000040A 83 7D E0 05                     	CMP	DWORD [-32+EBP],5
   590 0000040E 0F 84 0000010B                  	JE	L292
   591 00000414 43                              	INC	EBX
   592 00000415 83 FB 12                        	CMP	EBX,18
   593 00000418 7E B6                           	JLE	L203
   594 0000041A                                 L186:
   595 0000041A 46                              	INC	ESI
   596 0000041B 83 45 D4 13                     	ADD	DWORD [-44+EBP],19
   597 0000041F 83 FE 12                        	CMP	ESI,18
   598 00000422 7E AA                           	JLE	L204
   599 00000424 31 F6                           	XOR	ESI,ESI
   600 00000426 C7 45 C8 00000000               	MOV	DWORD [-56+EBP],0
   601 0000042D                                 L225:
   602 0000042D 31 DB                           	XOR	EBX,EBX
   603 0000042F                                 L224:
   604 0000042F 8B 4D C8                        	MOV	ECX,DWORD [-56+EBP]
   605 00000432 31 FF                           	XOR	EDI,EDI
   606 00000434 C7 45 DC 00000000               	MOV	DWORD [-36+EBP],0
   607 0000043B 01 D9                           	ADD	ECX,EBX
   608 0000043D BA 00000004                     	MOV	EDX,4
   609 00000442                                 L220:
   610 00000442 8B 04 8D [00000110]             	MOV	EAX,DWORD [_map+ECX*4]
   611 00000449 83 F8 01                        	CMP	EAX,1
   612 0000044C 0F 84 000000C7                  	JE	L293
   613 00000452 83 F8 02                        	CMP	EAX,2
   614 00000455 0F 84 000000B6                  	JE	L294
   615 0000045B                                 L215:
   616 0000045B 83 C1 13                        	ADD	ECX,19
   617 0000045E 4A                              	DEC	EDX
   618 0000045F 79 E1                           	JNS	L220
   619 00000461 83 FF 05                        	CMP	EDI,5
   620 00000464 0F 84 0000009B                  	JE	L295
   621 0000046A 83 7D DC 05                     	CMP	DWORD [-36+EBP],5
   622 0000046E 0F 84 00000085                  	JE	L296
   623 00000474 43                              	INC	EBX
   624 00000475 83 FB 12                        	CMP	EBX,18
   625 00000478 7E B5                           	JLE	L224
   626 0000047A                                 L207:
   627 0000047A 46                              	INC	ESI
   628 0000047B 83 45 C8 13                     	ADD	DWORD [-56+EBP],19
   629 0000047F 83 FE 12                        	CMP	ESI,18
   630 00000482 7E A9                           	JLE	L225
   631 00000484 31 F6                           	XOR	ESI,ESI
   632 00000486 C7 45 CC 00000000               	MOV	DWORD [-52+EBP],0
   633 0000048D                                 L246:
   634 0000048D 31 DB                           	XOR	EBX,EBX
   635 0000048F                                 L245:
   636 0000048F 8B 4D CC                        	MOV	ECX,DWORD [-52+EBP]
   637 00000492 31 FF                           	XOR	EDI,EDI
   638 00000494 C7 45 D8 00000000               	MOV	DWORD [-40+EBP],0
   639 0000049B 01 D9                           	ADD	ECX,EBX
   640 0000049D BA 00000004                     	MOV	EDX,4
   641 000004A2                                 L241:
   642 000004A2 8B 04 8D [00000110]             	MOV	EAX,DWORD [_map+ECX*4]
   643 000004A9 83 F8 01                        	CMP	EAX,1
   644 000004AC 74 48                           	JE	L297
   645 000004AE 83 F8 02                        	CMP	EAX,2
   646 000004B1 74 3E                           	JE	L298
   647 000004B3                                 L236:
   648 000004B3 83 E9 13                        	SUB	ECX,19
   649 000004B6 4A                              	DEC	EDX
   650 000004B7 79 E9                           	JNS	L241
   651 000004B9 83 FF 05                        	CMP	EDI,5
   652 000004BC 74 2A                           	JE	L299
   653 000004BE 83 7D D8 05                     	CMP	DWORD [-40+EBP],5
   654 000004C2 74 1B                           	JE	L300
   655 000004C4 43                              	INC	EBX
   656 000004C5 83 FB 12                        	CMP	EBX,18
   657 000004C8 7E C5                           	JLE	L245
   658 000004CA                                 L228:
   659 000004CA 46                              	INC	ESI
   660 000004CB 83 45 CC 13                     	ADD	DWORD [-52+EBP],19
   661 000004CF 83 FE 12                        	CMP	ESI,18
   662 000004D2 7E B9                           	JLE	L246
   663 000004D4 8B 45 F0                        	MOV	EAX,DWORD [-16+EBP]
   664 000004D7 83 C4 2C                        	ADD	ESP,44
   665 000004DA 5B                              	POP	EBX
   666 000004DB 5E                              	POP	ESI
   667 000004DC 5F                              	POP	EDI
   668 000004DD 5D                              	POP	EBP
   669 000004DE C3                              	RET
   670 000004DF                                 L300:
   671 000004DF C7 45 F0 00000002               	MOV	DWORD [-16+EBP],2
   672 000004E6 EB E2                           	JMP	L228
   673 000004E8                                 L299:
   674 000004E8 C7 45 F0 00000001               	MOV	DWORD [-16+EBP],1
   675 000004EF EB D9                           	JMP	L228
   676 000004F1                                 L298:
   677 000004F1 FF 45 D8                        	INC	DWORD [-40+EBP]
   678 000004F4 EB BD                           	JMP	L236
   679 000004F6                                 L297:
   680 000004F6 47                              	INC	EDI
   681 000004F7 EB BA                           	JMP	L236
   682 000004F9                                 L296:
   683 000004F9 C7 45 F0 00000002               	MOV	DWORD [-16+EBP],2
   684 00000500 E9 FFFFFF75                     	JMP	L207
   685 00000505                                 L295:
   686 00000505 C7 45 F0 00000001               	MOV	DWORD [-16+EBP],1
   687 0000050C E9 FFFFFF69                     	JMP	L207
   688 00000511                                 L294:
   689 00000511 FF 45 DC                        	INC	DWORD [-36+EBP]
   690 00000514 E9 FFFFFF42                     	JMP	L215
   691 00000519                                 L293:
   692 00000519 47                              	INC	EDI
   693 0000051A E9 FFFFFF3C                     	JMP	L215
   694 0000051F                                 L292:
   695 0000051F C7 45 F0 00000002               	MOV	DWORD [-16+EBP],2
   696 00000526 E9 FFFFFEEF                     	JMP	L186
   697 0000052B                                 L291:
   698 0000052B C7 45 F0 00000001               	MOV	DWORD [-16+EBP],1
   699 00000532 E9 FFFFFEE3                     	JMP	L186
   700 00000537                                 L290:
   701 00000537 FF 45 E0                        	INC	DWORD [-32+EBP]
   702 0000053A E9 FFFFFEBB                     	JMP	L194
   703 0000053F                                 L289:
   704 0000053F 47                              	INC	EDI
   705 00000540 E9 FFFFFEB5                     	JMP	L194
   706 00000545                                 L288:
   707 00000545 C7 45 F0 00000002               	MOV	DWORD [-16+EBP],2
   708 0000054C E9 FFFFFE6A                     	JMP	L165
   709 00000551                                 L287:
   710 00000551 C7 45 F0 00000001               	MOV	DWORD [-16+EBP],1
   711 00000558 E9 FFFFFE5E                     	JMP	L165
   712 0000055D                                 L286:
   713 0000055D FF 45 E4                        	INC	DWORD [-28+EBP]
   714 00000560 E9 FFFFFE36                     	JMP	L173
   715 00000565                                 L285:
   716 00000565 47                              	INC	EDI
   717 00000566 E9 FFFFFE30                     	JMP	L173
   718 0000056B                                 L284:
   719 0000056B C7 45 F0 00000002               	MOV	DWORD [-16+EBP],2
   720 00000572 E9 FFFFFDE9                     	JMP	L144
   721 00000577                                 L283:
   722 00000577 C7 45 F0 00000001               	MOV	DWORD [-16+EBP],1
   723 0000057E E9 FFFFFDDD                     	JMP	L144
   724 00000583                                 L282:
   725 00000583 FF 45 E8                        	INC	DWORD [-24+EBP]
   726 00000586 E9 FFFFFDB3                     	JMP	L152
   727 0000058B                                 L281:
   728 0000058B 47                              	INC	EDI
   729 0000058C E9 FFFFFDAD                     	JMP	L152
   730 00000591                                 L280:
   731 00000591 C7 45 F0 00000002               	MOV	DWORD [-16+EBP],2
   732 00000598 E9 FFFFFD69                     	JMP	L123
   733 0000059D                                 L279:
   734 0000059D C7 45 F0 00000001               	MOV	DWORD [-16+EBP],1
   735 000005A4 E9 FFFFFD5D                     	JMP	L123
   736 000005A9                                 L278:
   737 000005A9 FF 45 EC                        	INC	DWORD [-20+EBP]
   738 000005AC E9 FFFFFD33                     	JMP	L131
   739 000005B1                                 L277:
   740 000005B1 47                              	INC	EDI
   741 000005B2 E9 FFFFFD2D                     	JMP	L131
   742 000005B7                                 	GLOBAL	_map
   743                                          [SECTION .data]
   744 00000108 00 00 00 00 00 00 00 00         	ALIGNB	16
   745 00000110                                 _map:
   746 00000110 00 00 00 00 00 00 00 00 00 00   	RESB	1444
       0000011A 00 00 00 00 00 00 00 00 00 00 
       00000124 00 00 00 00 00 00 00 00 00 00 
       0000012E 00 00 00 00 00 00 00 00 00 00 
       00000138 00 00 00 00 00 00 00 00 00 00 
       00000142 00 00 00 00 00 00 00 00 00 00 
       0000014C 00 00 00 00 00 00 00 00 00 00 
       00000156 00 00 00 00 00 00 00 00 00 00 
       00000160 00 00 00 00 00 00 00 00 00 00 
       0000016A 00 00 00 00 00 00 00 00 00 00 
       00000174 00 00 00 00 00 00 00 00 00 00 
       0000017E 00 00 00 00 00 00 00 00 00 00 
       00000188 00 00 00 00 00 00 00 00 00 00 
       00000192 00 00 00 00 00 00 00 00 00 00 
       0000019C 00 00 00 00 00 00 00 00 00 00 
       000001A6 00 00 00 00 00 00 00 00 00 00 
       000001B0 00 00 00 00 00 00 00 00 00 00 
       000001BA 00 00 00 00 00 00 00 00 00 00 
       000001C4 00 00 00 00 00 00 00 00 00 00 
       000001CE 00 00 00 00 00 00 00 00 00 00 
       000001D8 00 00 00 00 00 00 00 00 00 00 
       000001E2 00 00 00 00 00 00 00 00 00 00 
       000001EC 00 00 00 00 00 00 00 00 00 00 
       000001F6 00 00 00 00 00 00 00 00 00 00 
       00000200 00 00 00 00 00 00 00 00 00 00 
       0000020A 00 00 00 00 00 00 00 00 00 00 
       00000214 00 00 00 00 00 00 00 00 00 00 
       0000021E 00 00 00 00 00 00 00 00 00 00 
       00000228 00 00 00 00 00 00 00 00 00 00 
       00000232 00 00 00 00 00 00 00 00 00 00 
       0000023C 00 00 00 00 00 00 00 00 00 00 
       00000246 00 00 00 00 00 00 00 00 00 00 
       00000250 00 00 00 00 00 00 00 00 00 00 
       0000025A 00 00 00 00 00 00 00 00 00 00 
       00000264 00 00 00 00 00 00 00 00 00 00 
       0000026E 00 00 00 00 00 00 00 00 00 00 
       00000278 00 00 00 00 00 00 00 00 00 00 
       00000282 00 00 00 00 00 00 00 00 00 00 
       0000028C 00 00 00 00 00 00 00 00 00 00 
       00000296 00 00 00 00 00 00 00 00 00 00 
       000002A0 00 00 00 00 00 00 00 00 00 00 
       000002AA 00 00 00 00 00 00 00 00 00 00 
       000002B4 00 00 00 00 00 00 00 00 00 00 
       000002BE 00 00 00 00 00 00 00 00 00 00 
       000002C8 00 00 00 00 00 00 00 00 00 00 
       000002D2 00 00 00 00 00 00 00 00 00 00 
       000002DC 00 00 00 00 00 00 00 00 00 00 
       000002E6 00 00 00 00 00 00 00 00 00 00 
       000002F0 00 00 00 00 00 00 00 00 00 00 
       000002FA 00 00 00 00 00 00 00 00 00 00 
       00000304 00 00 00 00 00 00 00 00 00 00 
       0000030E 00 00 00 00 00 00 00 00 00 00 
       00000318 00 00 00 00 00 00 00 00 00 00 
       00000322 00 00 00 00 00 00 00 00 00 00 
       0000032C 00 00 00 00 00 00 00 00 00 00 
       00000336 00 00 00 00 00 00 00 00 00 00 
       00000340 00 00 00 00 00 00 00 00 00 00 
       0000034A 00 00 00 00 00 00 00 00 00 00 
       00000354 00 00 00 00 00 00 00 00 00 00 
       0000035E 00 00 00 00 00 00 00 00 00 00 
       00000368 00 00 00 00 00 00 00 00 00 00 
       00000372 00 00 00 00 00 00 00 00 00 00 
       0000037C 00 00 00 00 00 00 00 00 00 00 
       00000386 00 00 00 00 00 00 00 00 00 00 
       00000390 00 00 00 00 00 00 00 00 00 00 
       0000039A 00 00 00 00 00 00 00 00 00 00 
       000003A4 00 00 00 00 00 00 00 00 00 00 
       000003AE 00 00 00 00 00 00 00 00 00 00 
       000003B8 00 00 00 00 00 00 00 00 00 00 
       000003C2 00 00 00 00 00 00 00 00 00 00 
       000003CC 00 00 00 00 00 00 00 00 00 00 
       000003D6 00 00 00 00 00 00 00 00 00 00 
       000003E0 00 00 00 00 00 00 00 00 00 00 
       000003EA 00 00 00 00 00 00 00 00 00 00 
       000003F4 00 00 00 00 00 00 00 00 00 00 
       000003FE 00 00 00 00 00 00 00 00 00 00 
       00000408 00 00 00 00 00 00 00 00 00 00 
       00000412 00 00 00 00 00 00 00 00 00 00 
       0000041C 00 00 00 00 00 00 00 00 00 00 
       00000426 00 00 00 00 00 00 00 00 00 00 
       00000430 00 00 00 00 00 00 00 00 00 00 
       0000043A 00 00 00 00 00 00 00 00 00 00 
       00000444 00 00 00 00 00 00 00 00 00 00 
       0000044E 00 00 00 00 00 00 00 00 00 00 
       00000458 00 00 00 00 00 00 00 00 00 00 
       00000462 00 00 00 00 00 00 00 00 00 00 
       0000046C 00 00 00 00 00 00 00 00 00 00 
       00000476 00 00 00 00 00 00 00 00 00 00 
       00000480 00 00 00 00 00 00 00 00 00 00 
       0000048A 00 00 00 00 00 00 00 00 00 00 
       00000494 00 00 00 00 00 00 00 00 00 00 
       0000049E 00 00 00 00 00 00 00 00 00 00 
       000004A8 00 00 00 00 00 00 00 00 00 00 
       000004B2 00 00 00 00 00 00 00 00 00 00 
       000004BC 00 00 00 00 00 00 00 00 00 00 
       000004C6 00 00 00 00 00 00 00 00 00 00 
       000004D0 00 00 00 00 00 00 00 00 00 00 
       000004DA 00 00 00 00 00 00 00 00 00 00 
       000004E4 00 00 00 00 00 00 00 00 00 00 
       000004EE 00 00 00 00 00 00 00 00 00 00 
       000004F8 00 00 00 00 00 00 00 00 00 00 
       00000502 00 00 00 00 00 00 00 00 00 00 
       0000050C 00 00 00 00 00 00 00 00 00 00 
       00000516 00 00 00 00 00 00 00 00 00 00 
       00000520 00 00 00 00 00 00 00 00 00 00 
       0000052A 00 00 00 00 00 00 00 00 00 00 
       00000534 00 00 00 00 00 00 00 00 00 00 
       0000053E 00 00 00 00 00 00 00 00 00 00 
       00000548 00 00 00 00 00 00 00 00 00 00 
       00000552 00 00 00 00 00 00 00 00 00 00 
       0000055C 00 00 00 00 00 00 00 00 00 00 
       00000566 00 00 00 00 00 00 00 00 00 00 
       00000570 00 00 00 00 00 00 00 00 00 00 
       0000057A 00 00 00 00 00 00 00 00 00 00 
       00000584 00 00 00 00 00 00 00 00 00 00 
       0000058E 00 00 00 00 00 00 00 00 00 00 
       00000598 00 00 00 00 00 00 00 00 00 00 
       000005A2 00 00 00 00 00 00 00 00 00 00 
       000005AC 00 00 00 00 00 00 00 00 00 00 
       000005B6 00 00 00 00 00 00 00 00 00 00 
       000005C0 00 00 00 00 00 00 00 00 00 00 
       000005CA 00 00 00 00 00 00 00 00 00 00 
       000005D4 00 00 00 00 00 00 00 00 00 00 
       000005DE 00 00 00 00 00 00 00 00 00 00 
       000005E8 00 00 00 00 00 00 00 00 00 00 
       000005F2 00 00 00 00 00 00 00 00 00 00 
       000005FC 00 00 00 00 00 00 00 00 00 00 
       00000606 00 00 00 00 00 00 00 00 00 00 
       00000610 00 00 00 00 00 00 00 00 00 00 
       0000061A 00 00 00 00 00 00 00 00 00 00 
       00000624 00 00 00 00 00 00 00 00 00 00 
       0000062E 00 00 00 00 00 00 00 00 00 00 
       00000638 00 00 00 00 00 00 00 00 00 00 
       00000642 00 00 00 00 00 00 00 00 00 00 
       0000064C 00 00 00 00 00 00 00 00 00 00 
       00000656 00 00 00 00 00 00 00 00 00 00 
       00000660 00 00 00 00 00 00 00 00 00 00 
       0000066A 00 00 00 00 00 00 00 00 00 00 
       00000674 00 00 00 00 00 00 00 00 00 00 
       0000067E 00 00 00 00 00 00 00 00 00 00 
       00000688 00 00 00 00 00 00 00 00 00 00 
       00000692 00 00 00 00 00 00 00 00 00 00 
       0000069C 00 00 00 00 00 00 00 00 00 00 
       000006A6 00 00 00 00 00 00 00 00 00 00 
       000006B0 00 00 00 00 
