     1 00000000                                 [FORMAT "WCOFF"]
     2 00000000                                 [INSTRSET "i486p"]
     3 00000000                                 [OPTIMIZE 1]
     4 00000000                                 [OPTION 1]
     5 00000000                                 [BITS 32]
     6 00000000                                 	EXTERN	_load_gdtr
     7 00000000                                 	EXTERN	_load_idtr
     8 00000000                                 	EXTERN	_asm_inthandler20
     9 00000000                                 	EXTERN	_asm_inthandler21
    10 00000000                                 	EXTERN	_asm_inthandler40
    11 00000000                                 	EXTERN	_io_out8
    12 00000000                                 	EXTERN	_io_in8
    13 00000000                                 	EXTERN	_strcmp
    14 00000000                                 	EXTERN	_intreturn
    15 00000000                                 	EXTERN	_task_now
    16 00000000                                 	EXTERN	_memman_alloc_4k
    17 00000000                                 	EXTERN	_macineMAIN
    18 00000000                                 	EXTERN	_hex_view_main
    19 00000000                                 	EXTERN	_gobangMain
    20 00000000                                 	EXTERN	_Word_END_gameMain
    21 00000000                                 	EXTERN	_RAND
    22 00000000                                 	EXTERN	_atoi
    23 00000000                                 	EXTERN	_strcpy
    24 00000000                                 	EXTERN	_io_sti
    25 00000000                                 	EXTERN	_io_stihlt
    26 00000000                                 	EXTERN	_io_in
    27 00000000                                 	EXTERN	_ASM_call
    28 00000000                                 	EXTERN	_init_pit
    29 00000000                                 	EXTERN	_timerctl
    30 00000000                                 	EXTERN	_sprintf
    31 00000000                                 	EXTERN	_get_eax
    32 00000000                                 	EXTERN	_get_ecx
    33 00000000                                 	EXTERN	_get_edx
    34 00000000                                 	EXTERN	_get_esi
    35 00000000                                 	EXTERN	_get_edi
    36 00000000                                 	EXTERN	_get_ebp
    37 00000000                                 	EXTERN	_get_eip
    38 00000000                                 	EXTERN	_get_esp
    39 00000000                                 	EXTERN	_get_cs
    40 00000000                                 	EXTERN	_file_search
    41 00000000                                 	EXTERN	_file_loadfile
    42 00000000                                 	EXTERN	_start_app
    43 00000000                                 	EXTERN	_memman_free_4k
    44 00000000                                 [FILE "Kernelc.c"]
    45                                          [SECTION .text]
    46 00000000                                 	GLOBAL	_init_gdtidt
    47 00000000                                 _init_gdtidt:
    48 00000000 55                              	PUSH	EBP
    49 00000001 89 E5                           	MOV	EBP,ESP
    50 00000003 56                              	PUSH	ESI
    51 00000004 53                              	PUSH	EBX
    52 00000005 BE 00270000                     	MOV	ESI,2555904
    53 0000000A BB 00001FFF                     	MOV	EBX,8191
    54 0000000F                                 L6:
    55 0000000F 6A 00                           	PUSH	0
    56 00000011 6A 00                           	PUSH	0
    57 00000013 6A 00                           	PUSH	0
    58 00000015 56                              	PUSH	ESI
    59 00000016 83 C6 08                        	ADD	ESI,8
    60 00000019 E8 000001C5                     	CALL	_set_segmdesc
    61 0000001E 83 C4 10                        	ADD	ESP,16
    62 00000021 4B                              	DEC	EBX
    63 00000022 79 EB                           	JNS	L6
    64 00000024 68 00004092                     	PUSH	16530
    65 00000029 BE 0026F800                     	MOV	ESI,2553856
    66 0000002E 6A 00                           	PUSH	0
    67 00000030 BB 000000FF                     	MOV	EBX,255
    68 00000035 6A FF                           	PUSH	-1
    69 00000037 68 00270008                     	PUSH	2555912
    70 0000003C E8 000001A2                     	CALL	_set_segmdesc
    71 00000041 68 0000409A                     	PUSH	16538
    72 00000046 68 00280000                     	PUSH	2621440
    73 0000004B 68 0007FFFF                     	PUSH	524287
    74 00000050 68 00270010                     	PUSH	2555920
    75 00000055 E8 00000189                     	CALL	_set_segmdesc
    76 0000005A 83 C4 20                        	ADD	ESP,32
    77 0000005D 68 00270000                     	PUSH	2555904
    78 00000062 68 0000FFFF                     	PUSH	65535
    79 00000067 E8 [00000000]                   	CALL	_load_gdtr
    80 0000006C 58                              	POP	EAX
    81 0000006D 5A                              	POP	EDX
    82 0000006E                                 L11:
    83 0000006E 6A 00                           	PUSH	0
    84 00000070 6A 00                           	PUSH	0
    85 00000072 6A 00                           	PUSH	0
    86 00000074 56                              	PUSH	ESI
    87 00000075 83 C6 08                        	ADD	ESI,8
    88 00000078 E8 000001B0                     	CALL	_set_gatedesc
    89 0000007D 83 C4 10                        	ADD	ESP,16
    90 00000080 4B                              	DEC	EBX
    91 00000081 79 EB                           	JNS	L11
    92 00000083 68 0026F800                     	PUSH	2553856
    93 00000088 68 000007FF                     	PUSH	2047
    94 0000008D E8 [00000000]                   	CALL	_load_idtr
    95 00000092 68 0000008E                     	PUSH	142
    96 00000097 6A 10                           	PUSH	16
    97 00000099 68 [00000000]                   	PUSH	_asm_inthandler20
    98 0000009E 68 0026F900                     	PUSH	2554112
    99 000000A3 E8 00000185                     	CALL	_set_gatedesc
   100 000000A8 68 0000008E                     	PUSH	142
   101 000000AD 6A 10                           	PUSH	16
   102 000000AF 68 [00000000]                   	PUSH	_asm_inthandler21
   103 000000B4 68 0026F908                     	PUSH	2554120
   104 000000B9 E8 0000016F                     	CALL	_set_gatedesc
   105 000000BE 83 C4 28                        	ADD	ESP,40
   106 000000C1 68 0000008E                     	PUSH	142
   107 000000C6 6A 10                           	PUSH	16
   108 000000C8 68 [00000000]                   	PUSH	_asm_inthandler40
   109 000000CD 68 0026FA00                     	PUSH	2554368
   110 000000D2 E8 00000156                     	CALL	_set_gatedesc
   111 000000D7 8D 65 F8                        	LEA	ESP,DWORD [-8+EBP]
   112 000000DA 5B                              	POP	EBX
   113 000000DB 5E                              	POP	ESI
   114 000000DC 5D                              	POP	EBP
   115 000000DD C3                              	RET
   116 000000DE                                 	GLOBAL	_inthandler21
   117 000000DE                                 _inthandler21:
   118 000000DE 55                              	PUSH	EBP
   119 000000DF 89 E5                           	MOV	EBP,ESP
   120 000000E1 6A 61                           	PUSH	97
   121 000000E3 6A 20                           	PUSH	32
   122 000000E5 E8 [00000000]                   	CALL	_io_out8
   123 000000EA 6A 60                           	PUSH	96
   124 000000EC E8 [00000000]                   	CALL	_io_in8
   125 000000F1 0F B6 C0                        	MOVZX	EAX,AL
   126 000000F4 50                              	PUSH	EAX
   127 000000F5 68 [00000640]                   	PUSH	_keyfifo
   128 000000FA E8 0000021A                     	CALL	_fifo8_put
   129 000000FF C9                              	LEAVE
   130 00000100 C3                              	RET
   131 00000101                                 	GLOBAL	_inthandler40
   132 00000101                                 _inthandler40:
   133 00000101 55                              	PUSH	EBP
   134 00000102 89 E5                           	MOV	EBP,ESP
   135 00000104 56                              	PUSH	ESI
   136 00000105 53                              	PUSH	EBX
   137 00000106 8B 4D 24                        	MOV	ECX,DWORD [36+EBP]
   138 00000109 8B 45 18                        	MOV	EAX,DWORD [24+EBP]
   139 0000010C 8B 75 1C                        	MOV	ESI,DWORD [28+EBP]
   140 0000010F 8B 5D 20                        	MOV	EBX,DWORD [32+EBP]
   141 00000112 8B 15 00000FE8                  	MOV	EDX,DWORD [4072]
   142 00000118 83 F9 02                        	CMP	ECX,2
   143 0000011B 0F 84 000000B4                  	JE	L36
   144 00000121 83 F9 09                        	CMP	ECX,9
   145 00000124 0F 84 0000009B                  	JE	L37
   146 0000012A 83 F9 03                        	CMP	ECX,3
   147 0000012D 0F 84 0000008B                  	JE	L38
   148 00000133 83 F9 04                        	CMP	ECX,4
   149 00000136 74 7B                           	JE	L39
   150 00000138 83 F9 06                        	CMP	ECX,6
   151 0000013B 74 65                           	JE	L40
   152 0000013D 83 F9 1F                        	CMP	ECX,31
   153 00000140 74 55                           	JE	L41
   154 00000142 83 F9 20                        	CMP	ECX,32
   155 00000145 74 33                           	JE	L42
   156 00000147 81 F9 0000016F                  	CMP	ECX,367
   157 0000014D 74 1D                           	JE	L43
   158 0000014F 81 F9 0000016A                  	CMP	ECX,362
   159 00000155 74 07                           	JE	L44
   160 00000157 8D 65 F8                        	LEA	ESP,DWORD [-8+EBP]
   161 0000015A 5B                              	POP	EBX
   162 0000015B 5E                              	POP	ESI
   163 0000015C 5D                              	POP	EBP
   164 0000015D C3                              	RET
   165 0000015E                                 L44:
   166 0000015E 89 45 08                        	MOV	DWORD [8+EBP],EAX
   167 00000161 8D 65 F8                        	LEA	ESP,DWORD [-8+EBP]
   168 00000164 5B                              	POP	EBX
   169 00000165 5E                              	POP	ESI
   170 00000166 5D                              	POP	EBP
   171 00000167 E9 000015BD                     	JMP	_sleep_m
   172 0000016C                                 L43:
   173 0000016C 89 45 08                        	MOV	DWORD [8+EBP],EAX
   174 0000016F 8D 65 F8                        	LEA	ESP,DWORD [-8+EBP]
   175 00000172 5B                              	POP	EBX
   176 00000173 5E                              	POP	ESI
   177 00000174 5D                              	POP	EBP
   178 00000175 E9 0000157E                     	JMP	_sleep
   179 0000017A                                 L42:
   180 0000017A 8D 04 1A                        	LEA	EAX,DWORD [EDX+EBX*1]
   181 0000017D 8D 14 32                        	LEA	EDX,DWORD [EDX+ESI*1]
   182 00000180 52                              	PUSH	EDX
   183 00000181 50                              	PUSH	EAX
   184 00000182 E8 [00000000]                   	CALL	_strcmp
   185 00000187 59                              	POP	ECX
   186 00000188 5B                              	POP	EBX
   187 00000189                                 L35:
   188 00000189 89 45 08                        	MOV	DWORD [8+EBP],EAX
   189 0000018C 8D 65 F8                        	LEA	ESP,DWORD [-8+EBP]
   190 0000018F 5B                              	POP	EBX
   191 00000190 5E                              	POP	ESI
   192 00000191 5D                              	POP	EBP
   193 00000192 E9 [00000000]                   	JMP	_intreturn
   194 00000197                                 L41:
   195 00000197 8D 65 F8                        	LEA	ESP,DWORD [-8+EBP]
   196 0000019A 5B                              	POP	EBX
   197 0000019B 5E                              	POP	ESI
   198 0000019C 5D                              	POP	EBP
   199 0000019D E9 00001162                     	JMP	_input_str_SM
   200 000001A2                                 L40:
   201 000001A2 89 5D 0C                        	MOV	DWORD [12+EBP],EBX
   202 000001A5 89 45 08                        	MOV	DWORD [8+EBP],EAX
   203 000001A8 8D 65 F8                        	LEA	ESP,DWORD [-8+EBP]
   204 000001AB 5B                              	POP	EBX
   205 000001AC 5E                              	POP	ESI
   206 000001AD 5D                              	POP	EBP
   207 000001AE E9 00001C59                     	JMP	_gotoxy
   208 000001B3                                 L39:
   209 000001B3 8D 65 F8                        	LEA	ESP,DWORD [-8+EBP]
   210 000001B6 5B                              	POP	EBX
   211 000001B7 5E                              	POP	ESI
   212 000001B8 5D                              	POP	EBP
   213 000001B9 E9 00001409                     	JMP	_clear
   214 000001BE                                 L38:
   215 000001BE E8 00001C7E                     	CALL	_getch
   216 000001C3 EB C4                           	JMP	L35
   217 000001C5                                 L37:
   218 000001C5 01 D0                           	ADD	EAX,EDX
   219 000001C7 89 45 08                        	MOV	DWORD [8+EBP],EAX
   220 000001CA 8D 65 F8                        	LEA	ESP,DWORD [-8+EBP]
   221 000001CD 5B                              	POP	EBX
   222 000001CE 5E                              	POP	ESI
   223 000001CF 5D                              	POP	EBP
   224 000001D0 E9 00000F90                     	JMP	_print
   225 000001D5                                 L36:
   226 000001D5 89 75 08                        	MOV	DWORD [8+EBP],ESI
   227 000001D8 8D 65 F8                        	LEA	ESP,DWORD [-8+EBP]
   228 000001DB 5B                              	POP	EBX
   229 000001DC 5E                              	POP	ESI
   230 000001DD 5D                              	POP	EBP
   231 000001DE E9 0000161A                     	JMP	_printchar
   232 000001E3                                 	GLOBAL	_set_segmdesc
   233 000001E3                                 _set_segmdesc:
   234 000001E3 55                              	PUSH	EBP
   235 000001E4 89 E5                           	MOV	EBP,ESP
   236 000001E6 53                              	PUSH	EBX
   237 000001E7 8B 55 0C                        	MOV	EDX,DWORD [12+EBP]
   238 000001EA 8B 4D 10                        	MOV	ECX,DWORD [16+EBP]
   239 000001ED 8B 5D 08                        	MOV	EBX,DWORD [8+EBP]
   240 000001F0 8B 45 14                        	MOV	EAX,DWORD [20+EBP]
   241 000001F3 81 FA 000FFFFF                  	CMP	EDX,1048575
   242 000001F9 76 08                           	JBE	L46
   243 000001FB C1 EA 0C                        	SHR	EDX,12
   244 000001FE 0D 00008000                     	OR	EAX,32768
   245 00000203                                 L46:
   246 00000203 66 89 13                        	MOV	WORD [EBX],DX
   247 00000206 88 43 05                        	MOV	BYTE [5+EBX],AL
   248 00000209 C1 EA 10                        	SHR	EDX,16
   249 0000020C C1 F8 08                        	SAR	EAX,8
   250 0000020F 83 E2 0F                        	AND	EDX,15
   251 00000212 66 89 4B 02                     	MOV	WORD [2+EBX],CX
   252 00000216 83 E0 F0                        	AND	EAX,-16
   253 00000219 C1 F9 10                        	SAR	ECX,16
   254 0000021C 09 C2                           	OR	EDX,EAX
   255 0000021E 88 4B 04                        	MOV	BYTE [4+EBX],CL
   256 00000221 88 53 06                        	MOV	BYTE [6+EBX],DL
   257 00000224 C1 F9 08                        	SAR	ECX,8
   258 00000227 88 4B 07                        	MOV	BYTE [7+EBX],CL
   259 0000022A 5B                              	POP	EBX
   260 0000022B 5D                              	POP	EBP
   261 0000022C C3                              	RET
   262 0000022D                                 	GLOBAL	_set_gatedesc
   263 0000022D                                 _set_gatedesc:
   264 0000022D 55                              	PUSH	EBP
   265 0000022E 89 E5                           	MOV	EBP,ESP
   266 00000230 53                              	PUSH	EBX
   267 00000231 8B 55 08                        	MOV	EDX,DWORD [8+EBP]
   268 00000234 8B 45 10                        	MOV	EAX,DWORD [16+EBP]
   269 00000237 8B 5D 14                        	MOV	EBX,DWORD [20+EBP]
   270 0000023A 8B 4D 0C                        	MOV	ECX,DWORD [12+EBP]
   271 0000023D 66 89 42 02                     	MOV	WORD [2+EDX],AX
   272 00000241 88 5A 05                        	MOV	BYTE [5+EDX],BL
   273 00000244 66 89 0A                        	MOV	WORD [EDX],CX
   274 00000247 89 D8                           	MOV	EAX,EBX
   275 00000249 C1 F8 08                        	SAR	EAX,8
   276 0000024C C1 F9 10                        	SAR	ECX,16
   277 0000024F 88 42 04                        	MOV	BYTE [4+EDX],AL
   278 00000252 66 89 4A 06                     	MOV	WORD [6+EDX],CX
   279 00000256 5B                              	POP	EBX
   280 00000257 5D                              	POP	EBP
   281 00000258 C3                              	RET
   282 00000259                                 	GLOBAL	_init_pic
   283 00000259                                 _init_pic:
   284 00000259 55                              	PUSH	EBP
   285 0000025A 89 E5                           	MOV	EBP,ESP
   286 0000025C 68 000000FF                     	PUSH	255
   287 00000261 6A 21                           	PUSH	33
   288 00000263 E8 [00000000]                   	CALL	_io_out8
   289 00000268 68 000000FF                     	PUSH	255
   290 0000026D 68 000000A1                     	PUSH	161
   291 00000272 E8 [00000000]                   	CALL	_io_out8
   292 00000277 6A 11                           	PUSH	17
   293 00000279 6A 20                           	PUSH	32
   294 0000027B E8 [00000000]                   	CALL	_io_out8
   295 00000280 6A 20                           	PUSH	32
   296 00000282 6A 21                           	PUSH	33
   297 00000284 E8 [00000000]                   	CALL	_io_out8
   298 00000289 83 C4 20                        	ADD	ESP,32
   299 0000028C 6A 04                           	PUSH	4
   300 0000028E 6A 21                           	PUSH	33
   301 00000290 E8 [00000000]                   	CALL	_io_out8
   302 00000295 6A 01                           	PUSH	1
   303 00000297 6A 21                           	PUSH	33
   304 00000299 E8 [00000000]                   	CALL	_io_out8
   305 0000029E 6A 11                           	PUSH	17
   306 000002A0 68 000000A0                     	PUSH	160
   307 000002A5 E8 [00000000]                   	CALL	_io_out8
   308 000002AA 6A 28                           	PUSH	40
   309 000002AC 68 000000A1                     	PUSH	161
   310 000002B1 E8 [00000000]                   	CALL	_io_out8
   311 000002B6 83 C4 20                        	ADD	ESP,32
   312 000002B9 6A 02                           	PUSH	2
   313 000002BB 68 000000A1                     	PUSH	161
   314 000002C0 E8 [00000000]                   	CALL	_io_out8
   315 000002C5 6A 01                           	PUSH	1
   316 000002C7 68 000000A1                     	PUSH	161
   317 000002CC E8 [00000000]                   	CALL	_io_out8
   318 000002D1 68 000000FB                     	PUSH	251
   319 000002D6 6A 21                           	PUSH	33
   320 000002D8 E8 [00000000]                   	CALL	_io_out8
   321 000002DD 68 000000FF                     	PUSH	255
   322 000002E2 68 000000A1                     	PUSH	161
   323 000002E7 E8 [00000000]                   	CALL	_io_out8
   324 000002EC C9                              	LEAVE
   325 000002ED C3                              	RET
   326 000002EE                                 	GLOBAL	_fifo8_init
   327 000002EE                                 _fifo8_init:
   328 000002EE 55                              	PUSH	EBP
   329 000002EF 89 E5                           	MOV	EBP,ESP
   330 000002F1 8B 45 08                        	MOV	EAX,DWORD [8+EBP]
   331 000002F4 8B 4D 0C                        	MOV	ECX,DWORD [12+EBP]
   332 000002F7 8B 55 10                        	MOV	EDX,DWORD [16+EBP]
   333 000002FA 89 48 0C                        	MOV	DWORD [12+EAX],ECX
   334 000002FD 89 10                           	MOV	DWORD [EAX],EDX
   335 000002FF 89 48 10                        	MOV	DWORD [16+EAX],ECX
   336 00000302 C7 40 14 00000000               	MOV	DWORD [20+EAX],0
   337 00000309 C7 40 04 00000000               	MOV	DWORD [4+EAX],0
   338 00000310 C7 40 08 00000000               	MOV	DWORD [8+EAX],0
   339 00000317 5D                              	POP	EBP
   340 00000318 C3                              	RET
   341 00000319                                 	GLOBAL	_fifo8_put
   342 00000319                                 _fifo8_put:
   343 00000319 55                              	PUSH	EBP
   344 0000031A 89 E5                           	MOV	EBP,ESP
   345 0000031C 53                              	PUSH	EBX
   346 0000031D 8B 4D 08                        	MOV	ECX,DWORD [8+EBP]
   347 00000320 8B 5D 0C                        	MOV	EBX,DWORD [12+EBP]
   348 00000323 83 79 10 00                     	CMP	DWORD [16+ECX],0
   349 00000327 75 0A                           	JNE	L51
   350 00000329 83 49 14 01                     	OR	DWORD [20+ECX],1
   351 0000032D 83 C8 FF                        	OR	EAX,-1
   352 00000330                                 L50:
   353 00000330 5B                              	POP	EBX
   354 00000331 5D                              	POP	EBP
   355 00000332 C3                              	RET
   356 00000333                                 L51:
   357 00000333 8B 01                           	MOV	EAX,DWORD [ECX]
   358 00000335 8B 51 04                        	MOV	EDX,DWORD [4+ECX]
   359 00000338 88 1C 02                        	MOV	BYTE [EDX+EAX*1],BL
   360 0000033B 8B 41 04                        	MOV	EAX,DWORD [4+ECX]
   361 0000033E 40                              	INC	EAX
   362 0000033F 89 41 04                        	MOV	DWORD [4+ECX],EAX
   363 00000342 3B 41 0C                        	CMP	EAX,DWORD [12+ECX]
   364 00000345 74 07                           	JE	L53
   365 00000347                                 L52:
   366 00000347 FF 49 10                        	DEC	DWORD [16+ECX]
   367 0000034A 31 C0                           	XOR	EAX,EAX
   368 0000034C EB E2                           	JMP	L50
   369 0000034E                                 L53:
   370 0000034E C7 41 04 00000000               	MOV	DWORD [4+ECX],0
   371 00000355 EB F0                           	JMP	L52
   372 00000357                                 	GLOBAL	_fifo8_get
   373 00000357                                 _fifo8_get:
   374 00000357 55                              	PUSH	EBP
   375 00000358 83 C8 FF                        	OR	EAX,-1
   376 0000035B 89 E5                           	MOV	EBP,ESP
   377 0000035D 56                              	PUSH	ESI
   378 0000035E 53                              	PUSH	EBX
   379 0000035F 8B 4D 08                        	MOV	ECX,DWORD [8+EBP]
   380 00000362 8B 71 10                        	MOV	ESI,DWORD [16+ECX]
   381 00000365 8B 59 0C                        	MOV	EBX,DWORD [12+ECX]
   382 00000368 39 DE                           	CMP	ESI,EBX
   383 0000036A 74 19                           	JE	L54
   384 0000036C 8B 41 08                        	MOV	EAX,DWORD [8+ECX]
   385 0000036F 8B 11                           	MOV	EDX,DWORD [ECX]
   386 00000371 0F B6 14 10                     	MOVZX	EDX,BYTE [EAX+EDX*1]
   387 00000375 40                              	INC	EAX
   388 00000376 89 41 08                        	MOV	DWORD [8+ECX],EAX
   389 00000379 39 D8                           	CMP	EAX,EBX
   390 0000037B 74 0C                           	JE	L57
   391 0000037D                                 L56:
   392 0000037D 8D 46 01                        	LEA	EAX,DWORD [1+ESI]
   393 00000380 89 41 10                        	MOV	DWORD [16+ECX],EAX
   394 00000383 89 D0                           	MOV	EAX,EDX
   395 00000385                                 L54:
   396 00000385 5B                              	POP	EBX
   397 00000386 5E                              	POP	ESI
   398 00000387 5D                              	POP	EBP
   399 00000388 C3                              	RET
   400 00000389                                 L57:
   401 00000389 C7 41 08 00000000               	MOV	DWORD [8+ECX],0
   402 00000390 EB EB                           	JMP	L56
   403 00000392                                 	GLOBAL	_fifo8_status
   404 00000392                                 _fifo8_status:
   405 00000392 55                              	PUSH	EBP
   406 00000393 89 E5                           	MOV	EBP,ESP
   407 00000395 8B 55 08                        	MOV	EDX,DWORD [8+EBP]
   408 00000398 5D                              	POP	EBP
   409 00000399 8B 42 0C                        	MOV	EAX,DWORD [12+EDX]
   410 0000039C 2B 42 10                        	SUB	EAX,DWORD [16+EDX]
   411 0000039F C3                              	RET
   412 000003A0                                 	GLOBAL	_read_cmos
   413 000003A0                                 _read_cmos:
   414 000003A0 55                              	PUSH	EBP
   415 000003A1 89 E5                           	MOV	EBP,ESP
   416 000003A3 53                              	PUSH	EBX
   417 000003A4 0F B6 45 08                     	MOVZX	EAX,BYTE [8+EBP]
   418 000003A8 50                              	PUSH	EAX
   419 000003A9 6A 70                           	PUSH	112
   420 000003AB E8 [00000000]                   	CALL	_io_out8
   421 000003B0 6A 71                           	PUSH	113
   422 000003B2 E8 [00000000]                   	CALL	_io_in8
   423 000003B7 68 00000080                     	PUSH	128
   424 000003BC 88 C3                           	MOV	BL,AL
   425 000003BE 6A 70                           	PUSH	112
   426 000003C0 E8 [00000000]                   	CALL	_io_out8
   427 000003C5 0F B6 C3                        	MOVZX	EAX,BL
   428 000003C8 8B 5D FC                        	MOV	EBX,DWORD [-4+EBP]
   429 000003CB C9                              	LEAVE
   430 000003CC C3                              	RET
   431 000003CD                                 	GLOBAL	_get_hour_hex
   432 000003CD                                 _get_hour_hex:
   433 000003CD 55                              	PUSH	EBP
   434 000003CE 89 E5                           	MOV	EBP,ESP
   435 000003D0 53                              	PUSH	EBX
   436 000003D1 6A 04                           	PUSH	4
   437 000003D3 E8 FFFFFFC8                     	CALL	_read_cmos
   438 000003D8 6A 04                           	PUSH	4
   439 000003DA C0 E8 04                        	SHR	AL,4
   440 000003DD 0F B6 C0                        	MOVZX	EAX,AL
   441 000003E0 6B D8 0A                        	IMUL	EBX,EAX,10
   442 000003E3 E8 FFFFFFB8                     	CALL	_read_cmos
   443 000003E8 83 E0 0F                        	AND	EAX,15
   444 000003EB 8D 04 18                        	LEA	EAX,DWORD [EAX+EBX*1]
   445 000003EE 8B 5D FC                        	MOV	EBX,DWORD [-4+EBP]
   446 000003F1 C9                              	LEAVE
   447 000003F2 C3                              	RET
   448 000003F3                                 	GLOBAL	_get_min_hex
   449 000003F3                                 _get_min_hex:
   450 000003F3 55                              	PUSH	EBP
   451 000003F4 89 E5                           	MOV	EBP,ESP
   452 000003F6 53                              	PUSH	EBX
   453 000003F7 6A 02                           	PUSH	2
   454 000003F9 E8 FFFFFFA2                     	CALL	_read_cmos
   455 000003FE 6A 02                           	PUSH	2
   456 00000400 C0 E8 04                        	SHR	AL,4
   457 00000403 0F B6 C0                        	MOVZX	EAX,AL
   458 00000406 6B D8 0A                        	IMUL	EBX,EAX,10
   459 00000409 E8 FFFFFF92                     	CALL	_read_cmos
   460 0000040E 83 E0 0F                        	AND	EAX,15
   461 00000411 8D 04 18                        	LEA	EAX,DWORD [EAX+EBX*1]
   462 00000414 8B 5D FC                        	MOV	EBX,DWORD [-4+EBP]
   463 00000417 C9                              	LEAVE
   464 00000418 C3                              	RET
   465 00000419                                 	GLOBAL	_get_sec_hex
   466 00000419                                 _get_sec_hex:
   467 00000419 55                              	PUSH	EBP
   468 0000041A 89 E5                           	MOV	EBP,ESP
   469 0000041C 53                              	PUSH	EBX
   470 0000041D 6A 00                           	PUSH	0
   471 0000041F E8 FFFFFF7C                     	CALL	_read_cmos
   472 00000424 6A 00                           	PUSH	0
   473 00000426 C0 E8 04                        	SHR	AL,4
   474 00000429 0F B6 C0                        	MOVZX	EAX,AL
   475 0000042C 6B D8 0A                        	IMUL	EBX,EAX,10
   476 0000042F E8 FFFFFF6C                     	CALL	_read_cmos
   477 00000434 83 E0 0F                        	AND	EAX,15
   478 00000437 8D 04 18                        	LEA	EAX,DWORD [EAX+EBX*1]
   479 0000043A 8B 5D FC                        	MOV	EBX,DWORD [-4+EBP]
   480 0000043D C9                              	LEAVE
   481 0000043E C3                              	RET
   482 0000043F                                 	GLOBAL	_get_day_of_month
   483 0000043F                                 _get_day_of_month:
   484 0000043F 55                              	PUSH	EBP
   485 00000440 89 E5                           	MOV	EBP,ESP
   486 00000442 53                              	PUSH	EBX
   487 00000443 6A 07                           	PUSH	7
   488 00000445 E8 FFFFFF56                     	CALL	_read_cmos
   489 0000044A 6A 07                           	PUSH	7
   490 0000044C C0 E8 04                        	SHR	AL,4
   491 0000044F 0F B6 C0                        	MOVZX	EAX,AL
   492 00000452 6B D8 0A                        	IMUL	EBX,EAX,10
   493 00000455 E8 FFFFFF46                     	CALL	_read_cmos
   494 0000045A 83 E0 0F                        	AND	EAX,15
   495 0000045D 8D 04 18                        	LEA	EAX,DWORD [EAX+EBX*1]
   496 00000460 8B 5D FC                        	MOV	EBX,DWORD [-4+EBP]
   497 00000463 C9                              	LEAVE
   498 00000464 C3                              	RET
   499 00000465                                 	GLOBAL	_get_day_of_week
   500 00000465                                 _get_day_of_week:
   501 00000465 55                              	PUSH	EBP
   502 00000466 89 E5                           	MOV	EBP,ESP
   503 00000468 53                              	PUSH	EBX
   504 00000469 6A 06                           	PUSH	6
   505 0000046B E8 FFFFFF30                     	CALL	_read_cmos
   506 00000470 6A 06                           	PUSH	6
   507 00000472 C0 E8 04                        	SHR	AL,4
   508 00000475 0F B6 C0                        	MOVZX	EAX,AL
   509 00000478 6B D8 0A                        	IMUL	EBX,EAX,10
   510 0000047B E8 FFFFFF20                     	CALL	_read_cmos
   511 00000480 83 E0 0F                        	AND	EAX,15
   512 00000483 8D 04 18                        	LEA	EAX,DWORD [EAX+EBX*1]
   513 00000486 8B 5D FC                        	MOV	EBX,DWORD [-4+EBP]
   514 00000489 C9                              	LEAVE
   515 0000048A C3                              	RET
   516 0000048B                                 	GLOBAL	_get_mon_hex
   517 0000048B                                 _get_mon_hex:
   518 0000048B 55                              	PUSH	EBP
   519 0000048C 89 E5                           	MOV	EBP,ESP
   520 0000048E 53                              	PUSH	EBX
   521 0000048F 6A 08                           	PUSH	8
   522 00000491 E8 FFFFFF0A                     	CALL	_read_cmos
   523 00000496 6A 08                           	PUSH	8
   524 00000498 C0 E8 04                        	SHR	AL,4
   525 0000049B 0F B6 C0                        	MOVZX	EAX,AL
   526 0000049E 6B D8 0A                        	IMUL	EBX,EAX,10
   527 000004A1 E8 FFFFFEFA                     	CALL	_read_cmos
   528 000004A6 83 E0 0F                        	AND	EAX,15
   529 000004A9 8D 04 18                        	LEA	EAX,DWORD [EAX+EBX*1]
   530 000004AC 8B 5D FC                        	MOV	EBX,DWORD [-4+EBP]
   531 000004AF C9                              	LEAVE
   532 000004B0 C3                              	RET
   533 000004B1                                 	GLOBAL	_get_year
   534 000004B1                                 _get_year:
   535 000004B1 55                              	PUSH	EBP
   536 000004B2 89 E5                           	MOV	EBP,ESP
   537 000004B4 53                              	PUSH	EBX
   538 000004B5 6A 32                           	PUSH	50
   539 000004B7 E8 FFFFFEE4                     	CALL	_read_cmos
   540 000004BC 6A 32                           	PUSH	50
   541 000004BE C0 E8 04                        	SHR	AL,4
   542 000004C1 0F B6 C0                        	MOVZX	EAX,AL
   543 000004C4 6B D8 0A                        	IMUL	EBX,EAX,10
   544 000004C7 E8 FFFFFED4                     	CALL	_read_cmos
   545 000004CC 6A 09                           	PUSH	9
   546 000004CE 83 E0 0F                        	AND	EAX,15
   547 000004D1 6B C0 64                        	IMUL	EAX,EAX,100
   548 000004D4 01 C3                           	ADD	EBX,EAX
   549 000004D6 E8 FFFFFEC5                     	CALL	_read_cmos
   550 000004DB C0 E8 04                        	SHR	AL,4
   551 000004DE 6A 09                           	PUSH	9
   552 000004E0 0F B6 C0                        	MOVZX	EAX,AL
   553 000004E3 6B C0 0A                        	IMUL	EAX,EAX,10
   554 000004E6 01 C3                           	ADD	EBX,EAX
   555 000004E8 E8 FFFFFEB3                     	CALL	_read_cmos
   556 000004ED 83 E0 0F                        	AND	EAX,15
   557 000004F0 8D 84 18 000007BC               	LEA	EAX,DWORD [1980+EAX+EBX*1]
   558 000004F7 8B 5D FC                        	MOV	EBX,DWORD [-4+EBP]
   559 000004FA C9                              	LEAVE
   560 000004FB C3                              	RET
   561                                          [SECTION .data]
   562 00000000                                 _keytable:
   563 00000000 00                              	DB	0
   564 00000001 00                              	DB	0
   565 00000002 21                              	DB	33
   566 00000003 40                              	DB	64
   567 00000004 23                              	DB	35
   568 00000005 24                              	DB	36
   569 00000006 25                              	DB	37
   570 00000007 5E                              	DB	94
   571 00000008 26                              	DB	38
   572 00000009 2A                              	DB	42
   573 0000000A 28                              	DB	40
   574 0000000B 29                              	DB	41
   575 0000000C 5F                              	DB	95
   576 0000000D 2B                              	DB	43
   577 0000000E 08                              	DB	8
   578 0000000F 00                              	DB	0
   579 00000010 51                              	DB	81
   580 00000011 57                              	DB	87
   581 00000012 45                              	DB	69
   582 00000013 52                              	DB	82
   583 00000014 54                              	DB	84
   584 00000015 59                              	DB	89
   585 00000016 55                              	DB	85
   586 00000017 49                              	DB	73
   587 00000018 4F                              	DB	79
   588 00000019 50                              	DB	80
   589 0000001A 7B                              	DB	123
   590 0000001B 7D                              	DB	125
   591 0000001C 0A                              	DB	10
   592 0000001D 00                              	DB	0
   593 0000001E 41                              	DB	65
   594 0000001F 53                              	DB	83
   595 00000020 44                              	DB	68
   596 00000021 46                              	DB	70
   597 00000022 47                              	DB	71
   598 00000023 48                              	DB	72
   599 00000024 4A                              	DB	74
   600 00000025 4B                              	DB	75
   601 00000026 4C                              	DB	76
   602 00000027 3A                              	DB	58
   603 00000028 22                              	DB	34
   604 00000029 00                              	DB	0
   605 0000002A 00                              	DB	0
   606 0000002B 7C                              	DB	124
   607 0000002C 5A                              	DB	90
   608 0000002D 58                              	DB	88
   609 0000002E 43                              	DB	67
   610 0000002F 56                              	DB	86
   611 00000030 42                              	DB	66
   612 00000031 4E                              	DB	78
   613 00000032 4D                              	DB	77
   614 00000033 3C                              	DB	60
   615 00000034 3E                              	DB	62
   616 00000035 3F                              	DB	63
   617 00000036 00                              	DB	0
   618 00000037 2A                              	DB	42
   619 00000038 00                              	DB	0
   620 00000039 20                              	DB	32
   621 0000003A 61                              	DB	97
   622 0000003B 00                              	DB	0
   623 0000003C 00                              	DB	0
   624 0000003D 00                              	DB	0
   625 0000003E 00                              	DB	0
   626 0000003F 00                              	DB	0
   627 00000040 00                              	DB	0
   628 00000041 00                              	DB	0
   629 00000042 00                              	DB	0
   630 00000043 00                              	DB	0
   631 00000044 00                              	DB	0
   632 00000045 00                              	DB	0
   633 00000046 00                              	DB	0
   634 00000047 37                              	DB	55
   635 00000048 38                              	DB	56
   636 00000049 39                              	DB	57
   637 0000004A 2D                              	DB	45
   638 0000004B 34                              	DB	52
   639 0000004C 35                              	DB	53
   640 0000004D 36                              	DB	54
   641 0000004E 2B                              	DB	43
   642 0000004F 31                              	DB	49
   643 00000050 32                              	DB	50
   644 00000051 33                              	DB	51
   645 00000052 30                              	DB	48
   646 00000053 2E                              	DB	46
   647 00000054                                 _keytable1:
   648 00000054 00                              	DB	0
   649 00000055 00                              	DB	0
   650 00000056 31                              	DB	49
   651 00000057 32                              	DB	50
   652 00000058 33                              	DB	51
   653 00000059 34                              	DB	52
   654 0000005A 35                              	DB	53
   655 0000005B 36                              	DB	54
   656 0000005C 37                              	DB	55
   657 0000005D 38                              	DB	56
   658 0000005E 39                              	DB	57
   659 0000005F 30                              	DB	48
   660 00000060 2D                              	DB	45
   661 00000061 3D                              	DB	61
   662 00000062 08                              	DB	8
   663 00000063 00                              	DB	0
   664 00000064 71                              	DB	113
   665 00000065 77                              	DB	119
   666 00000066 65                              	DB	101
   667 00000067 72                              	DB	114
   668 00000068 74                              	DB	116
   669 00000069 79                              	DB	121
   670 0000006A 75                              	DB	117
   671 0000006B 69                              	DB	105
   672 0000006C 6F                              	DB	111
   673 0000006D 70                              	DB	112
   674 0000006E 5B                              	DB	91
   675 0000006F 5D                              	DB	93
   676 00000070 0A                              	DB	10
   677 00000071 00                              	DB	0
   678 00000072 61                              	DB	97
   679 00000073 73                              	DB	115
   680 00000074 64                              	DB	100
   681 00000075 66                              	DB	102
   682 00000076 67                              	DB	103
   683 00000077 68                              	DB	104
   684 00000078 6A                              	DB	106
   685 00000079 6B                              	DB	107
   686 0000007A 6C                              	DB	108
   687 0000007B 3B                              	DB	59
   688 0000007C 27                              	DB	39
   689 0000007D 00                              	DB	0
   690 0000007E 00                              	DB	0
   691 0000007F 5C                              	DB	92
   692 00000080 7A                              	DB	122
   693 00000081 78                              	DB	120
   694 00000082 63                              	DB	99
   695 00000083 76                              	DB	118
   696 00000084 62                              	DB	98
   697 00000085 6E                              	DB	110
   698 00000086 6D                              	DB	109
   699 00000087 2C                              	DB	44
   700 00000088 2E                              	DB	46
   701 00000089 2F                              	DB	47
   702 0000008A 00                              	DB	0
   703 0000008B 2A                              	DB	42
   704 0000008C 00                              	DB	0
   705 0000008D 20                              	DB	32
   706 0000008E 46                              	DB	70
   707 0000008F 00                              	DB	0
   708 00000090 00                              	DB	0
   709 00000091 00                              	DB	0
   710 00000092 00                              	DB	0
   711 00000093 00                              	DB	0
   712 00000094 00                              	DB	0
   713 00000095 00                              	DB	0
   714 00000096 00                              	DB	0
   715 00000097 00                              	DB	0
   716 00000098 00                              	DB	0
   717 00000099 00                              	DB	0
   718 0000009A 00                              	DB	0
   719 0000009B 37                              	DB	55
   720 0000009C 38                              	DB	56
   721 0000009D 39                              	DB	57
   722 0000009E 2D                              	DB	45
   723 0000009F 34                              	DB	52
   724 000000A0 35                              	DB	53
   725 000000A1 36                              	DB	54
   726 000000A2 2B                              	DB	43
   727 000000A3 31                              	DB	49
   728 000000A4 32                              	DB	50
   729 000000A5 33                              	DB	51
   730 000000A6 30                              	DB	48
   731 000000A7 2E                              	DB	46
   732 000000A8                                 	GLOBAL	_tips
   733 000000A8                                 _tips:
   734 000000A8 53 69 6D 70 6C 65 4F 53 2D 00   	DB	"SimpleOS-",0x00
   735 000000B2                                 	GLOBAL	_tips_1
   736 000000B2                                 _tips_1:
   737 000000B2 20 23 20 00                     	DB	" # ",0x00
   738 000000B6                                 	GLOBAL	_x
   739 000000B6 00 00                           	ALIGNB	4
   740 000000B8                                 _x:
   741 000000B8 00000000                        	DD	0
   742 000000BC                                 	GLOBAL	_y
   743 000000BC                                 	ALIGNB	4
   744 000000BC                                 _y:
   745 000000BC 00000000                        	DD	0
   746 000000C0                                 	GLOBAL	_cons_x
   747 000000C0                                 	ALIGNB	4
   748 000000C0                                 _cons_x:
   749 000000C0 00000000                        	DD	0
   750 000000C4                                 	GLOBAL	_cons_y
   751 000000C4                                 	ALIGNB	4
   752 000000C4                                 _cons_y:
   753 000000C4 00000000                        	DD	0
   754 000000C8                                 	GLOBAL	_times
   755 000000C8                                 	ALIGNB	4
   756 000000C8                                 _times:
   757 000000C8 00000001                        	DD	1
   758 000000CC                                 	GLOBAL	_caps_lock
   759 000000CC                                 	ALIGNB	4
   760 000000CC                                 _caps_lock:
   761 000000CC 00000000                        	DD	0
   762 000000D0                                 	GLOBAL	_error_tips
   763 000000D0                                 LC0:
   764 000000D0 55 53 45 52 20 77 72 6F 6E 67   	DB	"USER wrong!!!!! Please wait 1sec",0x0A,0x00
       000000DA 21 21 21 21 21 20 50 6C 65 61 
       000000E4 73 65 20 77 61 69 74 20 31 73 
       000000EE 65 63 0A 00 
   765 000000F2 00 00                           	ALIGNB	4
   766 000000F4                                 _error_tips:
   767 000000F4 [000000D0]                      	DD	LC0
   768 000000F8                                 LC1:
   769 000000F8 56 49 45 57 00                  	DB	"VIEW",0x00
   770 000000FD                                 LC2:
   771 000000FD 56 49 45 57 20 43 4F 4E 46 49   	DB	"VIEW CONFIG ERROR",0x0A,0x00
       00000107 47 20 45 52 52 4F 52 0A 00 
   772 00000110                                 LC3:
   773 00000110 55 53 45 52 00                  	DB	"USER",0x00
   774 00000115                                 LC4:
   775 00000115 55 53 45 52 20 6E 6F 74 20 66   	DB	"USER not found, please to windows create name:(e.g. USER.txt)!",0x0A,0x00
       0000011F 6F 75 6E 64 2C 20 70 6C 65 61 
       00000129 73 65 20 74 6F 20 77 69 6E 64 
       00000133 6F 77 73 20 63 72 65 61 74 65 
       0000013D 20 6E 61 6D 65 3A 28 65 2E 67 
       00000147 2E 20 55 53 45 52 2E 74 78 74 
       00000151 29 21 0A 00 
   776 00000155                                 LC5:
   777 00000155 50 41 53 53 57 4F 52 44 00      	DB	"PASSWORD",0x00
   778 0000015E                                 LC6:
   779 0000015E 50 41 53 53 57 4F 52 44 20 6E   	DB	"PASSWORD not found, please to windows create name:(e.g. PASSWORD.txt)!",0x0A,0x00
       00000168 6F 74 20 66 6F 75 6E 64 2C 20 
       00000172 70 6C 65 61 73 65 20 74 6F 20 
       0000017C 77 69 6E 64 6F 77 73 20 63 72 
       00000186 65 61 74 65 20 6E 61 6D 65 3A 
       00000190 28 65 2E 67 2E 20 50 41 53 53 
       0000019A 57 4F 52 44 2E 74 78 74 29 21 
       000001A4 0A 00 
   780 000001A6                                 LC7:
   781 000001A6 74 72 75 65 00                  	DB	"true",0x00
   782 000001AB                                 LC8:
   783 000001AB 2D 2D 2D 2D 2D 2D 6C 6F 67 69   	DB	"------login:",0x0A,0x00
       000001B5 6E 3A 0A 00 
   784 000001B9                                 LC9:
   785 000001B9 2D 2D 2D 2D 55 73 65 72 3A 00   	DB	"----User:",0x00
   786 000001C3                                 LC10:
   787 000001C3 2D 2D 2D 2D 50 61 73 73 77 6F   	DB	"----Password:",0x00
       000001CD 72 64 3A 00 
   788 000001D1                                 LC11:
   789 000001D1 50 41 53 53 57 4F 52 44 20 77   	DB	"PASSWORD wrong!!!!! Please wait 1sec",0x0A,0x00
       000001DB 72 6F 6E 67 21 21 21 21 21 20 
       000001E5 50 6C 65 61 73 65 20 77 61 69 
       000001EF 74 20 31 73 65 63 0A 00 
   790 000001F7                                 LC12:
   791 000001F7 53 69 6D 70 6C 65 4F 53 20 33   	DB	"SimpleOS 32bits 0.0.0.1 beta",0x0A,0x00
       00000201 32 62 69 74 73 20 30 2E 30 2E 
       0000020B 30 2E 31 20 62 65 74 61 0A 00 
   792 00000215                                 LC13:
   793 00000215 74 68 69 73 20 73 79 73 74 65   	DB	"this system made by min0911 of DogheadOS Stduio",0x0A,0x00
       0000021F 6D 20 6D 61 64 65 20 62 79 20 
       00000229 6D 69 6E 30 39 31 31 20 6F 66 
       00000233 20 44 6F 67 68 65 61 64 4F 53 
       0000023D 20 53 74 64 75 69 6F 0A 00 
   794 00000246                                 LC14:
   795 00000246 73 79 73 74 65 6D 2E 73 74 61   	DB	"system.start.msg::",0x22,"hello, world    hello, 32bits world    helloC",0x22,0x0A,0x00
       00000250 72 74 2E 6D 73 67 3A 3A 22 68 
       0000025A 65 6C 6C 6F 2C 20 77 6F 72 6C 
       00000264 64 20 20 20 20 68 65 6C 6C 6F 
       0000026E 2C 20 33 32 62 69 74 73 20 77 
       00000278 6F 72 6C 64 20 20 20 20 68 65 
       00000282 6C 6C 6F 43 22 0A 00 
   796                                          [SECTION .text]
   797 000004FC                                 	GLOBAL	_shell
   798 000004FC                                 _shell:
   799 000004FC 55                              	PUSH	EBP
   800 000004FD 89 E5                           	MOV	EBP,ESP
   801 000004FF 57                              	PUSH	EDI
   802 00000500 56                              	PUSH	ESI
   803 00000501 53                              	PUSH	EBX
   804 00000502 83 EC 20                        	SUB	ESP,32
   805 00000505 E8 [00000000]                   	CALL	_task_now
   806 0000050A 68 00002D00                     	PUSH	11520
   807 0000050F 68 003C0000                     	PUSH	3932160
   808 00000514 E8 [00000000]                   	CALL	_memman_alloc_4k
   809 00000519 68 [000000F8]                   	PUSH	LC1
   810 0000051E E8 00000880                     	CALL	_fopen
   811 00000523 83 C4 0C                        	ADD	ESP,12
   812 00000526 85 C0                           	TEST	EAX,EAX
   813 00000528 75 0D                           	JNE	L68
   814 0000052A 68 [000000FD]                   	PUSH	LC2
   815 0000052F E8 00000C31                     	CALL	_print
   816 00000534 5E                              	POP	ESI
   817 00000535                                 L69:
   818 00000535 EB FE                           	JMP	L69
   819 00000537                                 L68:
   820 00000537 68 [00000110]                   	PUSH	LC3
   821 0000053C E8 00000862                     	CALL	_fopen
   822 00000541 5B                              	POP	EBX
   823 00000542 85 C0                           	TEST	EAX,EAX
   824 00000544 75 0D                           	JNE	L72
   825 00000546 68 [00000115]                   	PUSH	LC4
   826 0000054B E8 00000C15                     	CALL	_print
   827 00000550 59                              	POP	ECX
   828 00000551                                 L73:
   829 00000551 EB FE                           	JMP	L73
   830 00000553                                 L72:
   831 00000553 68 [00000155]                   	PUSH	LC5
   832 00000558 E8 00000846                     	CALL	_fopen
   833 0000055D 5A                              	POP	EDX
   834 0000055E 85 C0                           	TEST	EAX,EAX
   835 00000560 75 0D                           	JNE	L76
   836 00000562 68 [0000015E]                   	PUSH	LC6
   837 00000567 E8 00000BF9                     	CALL	_print
   838 0000056C 5F                              	POP	EDI
   839 0000056D                                 L77:
   840 0000056D EB FE                           	JMP	L77
   841 0000056F                                 L76:
   842 0000056F 68 [000000F8]                   	PUSH	LC1
   843 00000574 BE [000001A6]                   	MOV	ESI,LC7
   844 00000579 E8 00000825                     	CALL	_fopen
   845 0000057E B9 00000005                     	MOV	ECX,5
   846 00000583 FC                              	CLD
   847 00000584 89 C7                           	MOV	EDI,EAX
   848 00000586 F3                              	REPE
   849 00000587 A6                              	CMPSB
   850 00000588 0F 97 C2                        	SETA	DL
   851 0000058B 0F 92 C0                        	SETB	AL
   852 0000058E 5E                              	POP	ESI
   853 0000058F 38 C2                           	CMP	DL,AL
   854 00000591 0F 85 000000F6                  	JNE	L80
   855 00000597 E8 000013BA                     	CALL	_system_init
   856 0000059C E8 00001026                     	CALL	_clear
   857 000005A1 68 [000001AB]                   	PUSH	LC8
   858 000005A6 E8 00000BBA                     	CALL	_print
   859 000005AB 5B                              	POP	EBX
   860 000005AC                                 L81:
   861 000005AC 68 [000001B9]                   	PUSH	LC9
   862 000005B1 E8 00000BAF                     	CALL	_print
   863 000005B6 E8 00000D49                     	CALL	_input_str_SM
   864 000005BB 68 [00000110]                   	PUSH	LC3
   865 000005C0 A3 [00000668]                   	MOV	DWORD [_string],EAX
   866 000005C5 E8 000007D9                     	CALL	_fopen
   867 000005CA 89 04 24                        	MOV	DWORD [ESP],EAX
   868 000005CD FF 35 [00000668]                	PUSH	DWORD [_string]
   869 000005D3 E8 [00000000]                   	CALL	_strcmp
   870 000005D8 83 C4 0C                        	ADD	ESP,12
   871 000005DB 85 C0                           	TEST	EAX,EAX
   872 000005DD 0F 85 000000A2                  	JNE	L97
   873 000005E3 68 [000001C3]                   	PUSH	LC10
   874 000005E8 E8 00000B78                     	CALL	_print
   875 000005ED E8 00000BA1                     	CALL	_input_password
   876 000005F2 68 [00000155]                   	PUSH	LC5
   877 000005F7 A3 [00000668]                   	MOV	DWORD [_string],EAX
   878 000005FC E8 000007A2                     	CALL	_fopen
   879 00000601 89 04 24                        	MOV	DWORD [ESP],EAX
   880 00000604 FF 35 [00000668]                	PUSH	DWORD [_string]
   881 0000060A E8 [00000000]                   	CALL	_strcmp
   882 0000060F 83 C4 0C                        	ADD	ESP,12
   883 00000612 85 C0                           	TEST	EAX,EAX
   884 00000614 74 20                           	JE	L84
   885 00000616 68 [000001D1]                   	PUSH	LC11
   886 0000061B                                 L96:
   887 0000061B E8 00000B45                     	CALL	_print
   888 00000620 6A 00                           	PUSH	0
   889 00000622 E8 00000E86                     	CALL	_putchar
   890 00000627 6A 01                           	PUSH	1
   891 00000629 E8 000010CA                     	CALL	_sleep
   892 0000062E 83 C4 0C                        	ADD	ESP,12
   893 00000631 E9 FFFFFF76                     	JMP	L81
   894 00000636                                 L84:
   895 00000636 68 [000001F7]                   	PUSH	LC12
   896 0000063B E8 00000B25                     	CALL	_print
   897 00000640 68 [00000215]                   	PUSH	LC13
   898 00000645 E8 00000B1B                     	CALL	_print
   899 0000064A 68 [00000246]                   	PUSH	LC14
   900 0000064F E8 00000B11                     	CALL	_print
   901 00000654 83 C4 0C                        	ADD	ESP,12
   902 00000657                                 L95:
   903 00000657 68 [000000A8]                   	PUSH	_tips
   904 0000065C E8 00000B04                     	CALL	_print
   905 00000661 68 [00000660]                   	PUSH	_user
   906 00000666 E8 00000AFA                     	CALL	_print
   907 0000066B 68 [000000B2]                   	PUSH	_tips_1
   908 00000670 E8 00000AF0                     	CALL	_print
   909 00000675 E8 00000C8A                     	CALL	_input_str_SM
   910 0000067A 50                              	PUSH	EAX
   911 0000067B E8 0000007F                     	CALL	_command_run
   912 00000680 83 C4 10                        	ADD	ESP,16
   913 00000683 EB D2                           	JMP	L95
   914 00000685                                 L97:
   915 00000685 FF 35 [000000F4]                	PUSH	DWORD [_error_tips]
   916 0000068B EB 8E                           	JMP	L96
   917 0000068D                                 L80:
   918 0000068D 68 [00000110]                   	PUSH	LC3
   919 00000692 E8 0000070C                     	CALL	_fopen
   920 00000697 89 C7                           	MOV	EDI,EAX
   921 00000699 50                              	PUSH	EAX
   922 0000069A E8 00000AE1                     	CALL	_getlength
   923 0000069F 5A                              	POP	EDX
   924 000006A0 59                              	POP	ECX
   925 000006A1 83 F8 07                        	CMP	EAX,7
   926 000006A4 7E 3C                           	JLE	L85
   927 000006A6 8A 07                           	MOV	AL,BYTE [EDI]
   928 000006A8 A2 [00000660]                   	MOV	BYTE [_user],AL
   929 000006AD 8A 47 01                        	MOV	AL,BYTE [1+EDI]
   930 000006B0 A2 [00000661]                   	MOV	BYTE [_user+1],AL
   931 000006B5 8A 47 02                        	MOV	AL,BYTE [2+EDI]
   932 000006B8 A2 [00000662]                   	MOV	BYTE [_user+2],AL
   933 000006BD 8A 47 03                        	MOV	AL,BYTE [3+EDI]
   934 000006C0 A2 [00000663]                   	MOV	BYTE [_user+3],AL
   935 000006C5 8A 47 04                        	MOV	AL,BYTE [4+EDI]
   936 000006C8 A2 [00000664]                   	MOV	BYTE [_user+4],AL
   937 000006CD 8A 47 05                        	MOV	AL,BYTE [5+EDI]
   938 000006D0 A2 [00000665]                   	MOV	BYTE [_user+5],AL
   939 000006D5 8A 47 06                        	MOV	AL,BYTE [6+EDI]
   940 000006D8 A2 [00000666]                   	MOV	BYTE [_user+6],AL
   941 000006DD E9 FFFFFF54                     	JMP	L84
   942 000006E2                                 L85:
   943 000006E2 31 DB                           	XOR	EBX,EBX
   944 000006E4                                 L87:
   945 000006E4 57                              	PUSH	EDI
   946 000006E5 E8 00000A96                     	CALL	_getlength
   947 000006EA 5E                              	POP	ESI
   948 000006EB 39 C3                           	CMP	EBX,EAX
   949 000006ED 0F 8D FFFFFF43                  	JGE	L84
   950 000006F3 8A 04 3B                        	MOV	AL,BYTE [EBX+EDI*1]
   951 000006F6 88 83 [00000660]                	MOV	BYTE [_user+EBX],AL
   952 000006FC 43                              	INC	EBX
   953 000006FD EB E5                           	JMP	L87
   954                                          [SECTION .data]
   955 00000289                                 LC15:
   956 00000289 6C 73 00                        	DB	"ls",0x00
   957 0000028C                                 LC16:
   958 0000028C 63 6C 65 61 72 00               	DB	"clear",0x00
   959 00000292                                 LC17:
   960 00000292 63 61 74 20 00                  	DB	"cat ",0x00
   961 00000297                                 LC18:
   962 00000297 74 65 73 74 00                  	DB	"test",0x00
   963 0000029C                                 LC22:
   964 0000029C 63 61 6C 63 00                  	DB	"calc",0x00
   965 000002A1                                 LC23:
   966 000002A1 73 68 75 74 64 6F 77 6E 00      	DB	"shutdown",0x00
   967 000002AA                                 LC24:
   968 000002AA 72 65 73 00                     	DB	"res",0x00
   969 000002AE                                 LC25:
   970 000002AE 63 6F 6C 6F 72 20 00            	DB	"color ",0x00
   971 000002B5                                 LC26:
   972 000002B5 30 78 66 66 66 30 30 30 00      	DB	"0xfff000",0x00
   973 000002BE                                 LC27:
   974 000002BE 74 69 6D 65 00                  	DB	"time",0x00
   975 000002C3                                 LC28:
   976 000002C3 74 69 6D 65 72 00               	DB	"timer",0x00
   977 000002C9                                 LC29:
   978 000002C9 77 6F 72 64 65 6E 64 00         	DB	"wordend",0x00
   979 000002D1                                 LC30:
   980 000002D1 67 6F 62 61 6E 67 00            	DB	"gobang",0x00
   981 000002D8                                 LC31:
   982 000002D8 68 65 78 00                     	DB	"hex",0x00
   983 000002DC                                 LC32:
   984 000002DC 63 6F 64 65 00                  	DB	"code",0x00
   985 000002E1                                 LC33:
   986 000002E1 62 61 64 20 63 6F 6D 6D 61 6E   	DB	"bad command!",0x0A,0x00
       000002EB 64 21 0A 00 
   987 000002EF                                 LC21:
   988 000002EF 0A 00                           	DB	0x0A,0x00
   989 000002F1                                 LC19:
   990 000002F1 68 65 6C 6C 6F 2C 20 77 6F 72   	DB	"hello, world",0x0A,0x00
       000002FB 6C 64 0A 00 
   991 000002FF                                 LC20:
   992 000002FF 35 30 00                        	DB	"50",0x00
   993                                          [SECTION .text]
   994 000006FF                                 	GLOBAL	_command_run
   995 000006FF                                 _command_run:
   996 000006FF 55                              	PUSH	EBP
   997 00000700 89 E5                           	MOV	EBP,ESP
   998 00000702 57                              	PUSH	EDI
   999 00000703 56                              	PUSH	ESI
  1000 00000704 BF [00000289]                   	MOV	EDI,LC15
  1001 00000709 53                              	PUSH	EBX
  1002 0000070A 83 EC 24                        	SUB	ESP,36
  1003 0000070D 8B 5D 08                        	MOV	EBX,DWORD [8+EBP]
  1004 00000710 E8 [00000000]                   	CALL	_task_now
  1005 00000715 68 00002D00                     	PUSH	11520
  1006 0000071A 89 DE                           	MOV	ESI,EBX
  1007 0000071C 68 003C0000                     	PUSH	3932160
  1008 00000721 E8 [00000000]                   	CALL	_memman_alloc_4k
  1009 00000726 B9 00000003                     	MOV	ECX,3
  1010 0000072B FC                              	CLD
  1011 0000072C 89 45 D0                        	MOV	DWORD [-48+EBP],EAX
  1012 0000072F F3                              	REPE
  1013 00000730 A6                              	CMPSB
  1014 00000731 5E                              	POP	ESI
  1015 00000732 0F 97 C2                        	SETA	DL
  1016 00000735 0F 92 C0                        	SETB	AL
  1017 00000738 5F                              	POP	EDI
  1018 00000739 38 C2                           	CMP	DL,AL
  1019 0000073B 0F 84 00000217                  	JE	L136
  1020 00000741 FC                              	CLD
  1021 00000742 89 DE                           	MOV	ESI,EBX
  1022 00000744 BF [0000028C]                   	MOV	EDI,LC16
  1023 00000749 B9 00000006                     	MOV	ECX,6
  1024 0000074E F3                              	REPE
  1025 0000074F A6                              	CMPSB
  1026 00000750 0F 84 000001F8                  	JE	L137
  1027 00000756 FC                              	CLD
  1028 00000757 89 DE                           	MOV	ESI,EBX
  1029 00000759 BF [00000292]                   	MOV	EDI,LC17
  1030 0000075E B9 00000004                     	MOV	ECX,4
  1031 00000763 F3                              	REPE
  1032 00000764 A6                              	CMPSB
  1033 00000765 0F 84 000001D8                  	JE	L138
  1034 0000076B FC                              	CLD
  1035 0000076C 89 DE                           	MOV	ESI,EBX
  1036 0000076E BF [00000297]                   	MOV	EDI,LC18
  1037 00000773 B9 00000005                     	MOV	ECX,5
  1038 00000778 F3                              	REPE
  1039 00000779 A6                              	CMPSB
  1040 0000077A 0F 84 0000018D                  	JE	L139
  1041 00000780 FC                              	CLD
  1042 00000781 89 DE                           	MOV	ESI,EBX
  1043 00000783 BF [0000029C]                   	MOV	EDI,LC22
  1044 00000788 B9 00000005                     	MOV	ECX,5
  1045 0000078D F3                              	REPE
  1046 0000078E A6                              	CMPSB
  1047 0000078F 0F 84 0000016E                  	JE	L140
  1048 00000795 FC                              	CLD
  1049 00000796 89 DE                           	MOV	ESI,EBX
  1050 00000798 BF [000002A1]                   	MOV	EDI,LC23
  1051 0000079D B9 00000009                     	MOV	ECX,9
  1052 000007A2 F3                              	REPE
  1053 000007A3 A6                              	CMPSB
  1054 000007A4 0F 84 000000B1                  	JE	L98
  1055 000007AA 89 DE                           	MOV	ESI,EBX
  1056 000007AC BF [000002AA]                   	MOV	EDI,LC24
  1057 000007B1 B9 00000004                     	MOV	ECX,4
  1058 000007B6 F3                              	REPE
  1059 000007B7 A6                              	CMPSB
  1060 000007B8 0F 84 0000013B                  	JE	L141
  1061 000007BE FC                              	CLD
  1062 000007BF 89 DE                           	MOV	ESI,EBX
  1063 000007C1 BF [000002AE]                   	MOV	EDI,LC25
  1064 000007C6 B9 00000006                     	MOV	ECX,6
  1065 000007CB F3                              	REPE
  1066 000007CC A6                              	CMPSB
  1067 000007CD 0F 84 00000116                  	JE	L142
  1068 000007D3 FC                              	CLD
  1069 000007D4 89 DE                           	MOV	ESI,EBX
  1070 000007D6 BF [000002B5]                   	MOV	EDI,LC26
  1071 000007DB B9 00000009                     	MOV	ECX,9
  1072 000007E0 F3                              	REPE
  1073 000007E1 A6                              	CMPSB
  1074 000007E2 0F 84 000000F7                  	JE	L143
  1075 000007E8 FC                              	CLD
  1076 000007E9 89 DE                           	MOV	ESI,EBX
  1077 000007EB BF [000002BE]                   	MOV	EDI,LC27
  1078 000007F0 B9 00000005                     	MOV	ECX,5
  1079 000007F5 F3                              	REPE
  1080 000007F6 A6                              	CMPSB
  1081 000007F7 0F 84 000000D6                  	JE	L144
  1082 000007FD FC                              	CLD
  1083 000007FE 89 DE                           	MOV	ESI,EBX
  1084 00000800 BF [000002C3]                   	MOV	EDI,LC28
  1085 00000805 B9 00000006                     	MOV	ECX,6
  1086 0000080A F3                              	REPE
  1087 0000080B A6                              	CMPSB
  1088 0000080C 0F 84 00000082                  	JE	L145
  1089 00000812 FC                              	CLD
  1090 00000813 89 DE                           	MOV	ESI,EBX
  1091 00000815 BF [000002C9]                   	MOV	EDI,LC29
  1092 0000081A B9 00000008                     	MOV	ECX,8
  1093 0000081F F3                              	REPE
  1094 00000820 A6                              	CMPSB
  1095 00000821 74 6A                           	JE	L146
  1096 00000823 FC                              	CLD
  1097 00000824 89 DE                           	MOV	ESI,EBX
  1098 00000826 BF [000002D1]                   	MOV	EDI,LC30
  1099 0000082B B9 00000007                     	MOV	ECX,7
  1100 00000830 F3                              	REPE
  1101 00000831 A6                              	CMPSB
  1102 00000832 74 52                           	JE	L147
  1103 00000834 FC                              	CLD
  1104 00000835 89 DE                           	MOV	ESI,EBX
  1105 00000837 BF [000002D8]                   	MOV	EDI,LC31
  1106 0000083C B9 00000004                     	MOV	ECX,4
  1107 00000841 F3                              	REPE
  1108 00000842 A6                              	CMPSB
  1109 00000843 74 3A                           	JE	L148
  1110 00000845 FC                              	CLD
  1111 00000846 89 DE                           	MOV	ESI,EBX
  1112 00000848 BF [000002DC]                   	MOV	EDI,LC32
  1113 0000084D B9 00000005                     	MOV	ECX,5
  1114 00000852 F3                              	REPE
  1115 00000853 A6                              	CMPSB
  1116 00000854 75 0D                           	JNE	L131
  1117 00000856 E8 [00000000]                   	CALL	_macineMAIN
  1118 0000085B                                 L98:
  1119 0000085B 8D 65 F4                        	LEA	ESP,DWORD [-12+EBP]
  1120 0000085E 5B                              	POP	EBX
  1121 0000085F 5E                              	POP	ESI
  1122 00000860 5F                              	POP	EDI
  1123 00000861 5D                              	POP	EBP
  1124 00000862 C3                              	RET
  1125 00000863                                 L131:
  1126 00000863 53                              	PUSH	EBX
  1127 00000864 FF 75 D0                        	PUSH	DWORD [-48+EBP]
  1128 00000867 E8 000016A1                     	CALL	_cmd_app
  1129 0000086C 5A                              	POP	EDX
  1130 0000086D 59                              	POP	ECX
  1131 0000086E 85 C0                           	TEST	EAX,EAX
  1132 00000870 75 E9                           	JNE	L98
  1133 00000872 68 [000002E1]                   	PUSH	LC33
  1134 00000877                                 L134:
  1135 00000877 E8 000008E9                     	CALL	_print
  1136 0000087C                                 L135:
  1137 0000087C 5F                              	POP	EDI
  1138 0000087D EB DC                           	JMP	L98
  1139 0000087F                                 L148:
  1140 0000087F E8 [00000000]                   	CALL	_hex_view_main
  1141 00000884 EB D5                           	JMP	L98
  1142 00000886                                 L147:
  1143 00000886 E8 [00000000]                   	CALL	_gobangMain
  1144 0000088B EB CE                           	JMP	L98
  1145 0000088D                                 L146:
  1146 0000088D E8 [00000000]                   	CALL	_Word_END_gameMain
  1147 00000892 EB C7                           	JMP	L98
  1148 00000894                                 L145:
  1149 00000894 E8 00000D2E                     	CALL	_clear
  1150 00000899 C7 05 [000000C0] 00000096       	MOV	DWORD [_cons_x],150
  1151 000008A3 C7 05 [000000C4] 00000096       	MOV	DWORD [_cons_y],150
  1152 000008AD                                 L123:
  1153 000008AD E8 0000149F                     	CALL	_print_date
  1154 000008B2 6A 20                           	PUSH	32
  1155 000008B4 E8 00000F44                     	CALL	_printchar
  1156 000008B9 6A 20                           	PUSH	32
  1157 000008BB E8 00000F3D                     	CALL	_printchar
  1158 000008C0 6A 20                           	PUSH	32
  1159 000008C2 E8 00000F36                     	CALL	_printchar
  1160 000008C7 6A 20                           	PUSH	32
  1161 000008C9 E8 00000F2F                     	CALL	_printchar
  1162 000008CE 83 C4 10                        	ADD	ESP,16
  1163 000008D1 EB DA                           	JMP	L123
  1164 000008D3                                 L144:
  1165 000008D3 E8 00001479                     	CALL	_print_date
  1166 000008D8 68 [000002EF]                   	PUSH	LC21
  1167 000008DD EB 98                           	JMP	L134
  1168 000008DF                                 L143:
  1169 000008DF E8 000000CB                     	CALL	_color_egg_deal
  1170 000008E4 E9 FFFFFF72                     	JMP	L98
  1171 000008E9                                 L142:
  1172 000008E9 89 1D [00000668]                	MOV	DWORD [_string],EBX
  1173 000008EF E8 0000006E                     	CALL	_color_deal
  1174 000008F4 E9 FFFFFF62                     	JMP	L98
  1175 000008F9                                 L141:
  1176 000008F9 E8 00000F7B                     	CALL	_view_res
  1177 000008FE E9 FFFFFF58                     	JMP	L98
  1178 00000903                                 L140:
  1179 00000903 E8 0000013D                     	CALL	_calcdeal
  1180 00000908 E9 FFFFFF4E                     	JMP	L98
  1181 0000090D                                 L139:
  1182 0000090D 68 [000002F1]                   	PUSH	LC19
  1183 00000912 E8 0000084E                     	CALL	_print
  1184 00000917 68 [000002FF]                   	PUSH	LC20
  1185 0000091C E8 000006DF                     	CALL	_my_atoi
  1186 00000921 89 04 24                        	MOV	DWORD [ESP],EAX
  1187 00000924 E8 000006B6                     	CALL	_itoa
  1188 00000929 89 04 24                        	MOV	DWORD [ESP],EAX
  1189 0000092C E8 00000834                     	CALL	_print
  1190 00000931 68 [000002EF]                   	PUSH	LC21
  1191 00000936 E8 0000082A                     	CALL	_print
  1192 0000093B 83 C4 0C                        	ADD	ESP,12
  1193 0000093E E9 FFFFFF18                     	JMP	L98
  1194 00000943                                 L138:
  1195 00000943 53                              	PUSH	EBX
  1196 00000944 E8 00000296                     	CALL	_type_deal
  1197 00000949 E9 FFFFFF2E                     	JMP	L135
  1198 0000094E                                 L137:
  1199 0000094E E8 00000C74                     	CALL	_clear
  1200 00000953 E9 FFFFFF03                     	JMP	L98
  1201 00000958                                 L136:
  1202 00000958 E8 0000034E                     	CALL	_cmd_dir
  1203 0000095D E9 FFFFFEF9                     	JMP	L98
  1204                                          [SECTION .data]
  1205 00000302                                 LC34:
  1206 00000302 50 6C 65 61 73 65 20 65 6E 74   	DB	"Please enter the correct hexadecimal number",0x0A,0x00
       0000030C 65 72 20 74 68 65 20 63 6F 72 
       00000316 72 65 63 74 20 68 65 78 61 64 
       00000320 65 63 69 6D 61 6C 20 6E 75 6D 
       0000032A 62 65 72 0A 00 
  1207                                          [SECTION .text]
  1208 00000962                                 	GLOBAL	_color_deal
  1209 00000962                                 _color_deal:
  1210 00000962 55                              	PUSH	EBP
  1211 00000963 89 E5                           	MOV	EBP,ESP
  1212 00000965 83 EC 20                        	SUB	ESP,32
  1213 00000968 8B 15 [00000668]                	MOV	EDX,DWORD [_string]
  1214 0000096E 8A 42 06                        	MOV	AL,BYTE [6+EDX]
  1215 00000971 88 45 E0                        	MOV	BYTE [-32+EBP],AL
  1216 00000974 8A 42 07                        	MOV	AL,BYTE [7+EDX]
  1217 00000977 88 45 E1                        	MOV	BYTE [-31+EBP],AL
  1218 0000097A 8B 45 E0                        	MOV	EAX,DWORD [-32+EBP]
  1219 0000097D 66 89 45 F0                     	MOV	WORD [-16+EBP],AX
  1220 00000981 8D 45 F0                        	LEA	EAX,DWORD [-16+EBP]
  1221 00000984 50                              	PUSH	EAX
  1222 00000985 C6 45 E2 00                     	MOV	BYTE [-30+EBP],0
  1223 00000989 C6 45 F2 00                     	MOV	BYTE [-14+EBP],0
  1224 0000098D E8 000012C5                     	CALL	_htoi
  1225 00000992 5A                              	POP	EDX
  1226 00000993 83 F8 FF                        	CMP	EAX,-1
  1227 00000996 74 0B                           	JE	L151
  1228 00000998 0F BE C0                        	MOVSX	EAX,AL
  1229 0000099B 50                              	PUSH	EAX
  1230 0000099C E8 0000125D                     	CALL	_set_color
  1231 000009A1                                 L149:
  1232 000009A1 C9                              	LEAVE
  1233 000009A2 C3                              	RET
  1234 000009A3                                 L151:
  1235 000009A3 68 [00000302]                   	PUSH	LC34
  1236 000009A8 E8 000007B8                     	CALL	_print
  1237 000009AD EB F2                           	JMP	L149
  1238                                          [SECTION .data]
  1239 0000032F                                 LC35:
  1240 0000032F 31 00                           	DB	"1",0x00
  1241 00000331                                 LC36:
  1242 00000331 30 00                           	DB	"0",0x00
  1243                                          [SECTION .text]
  1244 000009AF                                 	GLOBAL	_color_egg_deal
  1245 000009AF                                 _color_egg_deal:
  1246 000009AF 55                              	PUSH	EBP
  1247 000009B0 89 E5                           	MOV	EBP,ESP
  1248 000009B2 53                              	PUSH	EBX
  1249 000009B3 BB 000003E7                     	MOV	EBX,999
  1250 000009B8                                 L161:
  1251 000009B8 E8 [00000000]                   	CALL	_RAND
  1252 000009BD BA 0000000A                     	MOV	EDX,10
  1253 000009C2 89 D1                           	MOV	ECX,EDX
  1254 000009C4 66 99                           	CWD
  1255 000009C6 66 F7 F9                        	IDIV	CX
  1256 000009C9 0F BF C2                        	MOVSX	EAX,DX
  1257 000009CC 83 F8 02                        	CMP	EAX,2
  1258 000009CF 74 35                           	JE	L165
  1259 000009D1 83 F8 04                        	CMP	EAX,4
  1260 000009D4 7F 29                           	JG	L159
  1261 000009D6 68 [0000032F]                   	PUSH	LC35
  1262 000009DB                                 L164:
  1263 000009DB E8 00000785                     	CALL	_print
  1264 000009E0 C7 04 24 00000003               	MOV	DWORD [ESP],3
  1265 000009E7 E8 00000D3D                     	CALL	_sleep_m
  1266 000009EC 4B                              	DEC	EBX
  1267 000009ED 59                              	POP	ECX
  1268 000009EE 79 C8                           	JNS	L161
  1269 000009F0 68 [000002EF]                   	PUSH	LC21
  1270 000009F5 E8 0000076B                     	CALL	_print
  1271 000009FA 8B 5D FC                        	MOV	EBX,DWORD [-4+EBP]
  1272 000009FD C9                              	LEAVE
  1273 000009FE C3                              	RET
  1274 000009FF                                 L159:
  1275 000009FF 68 [00000331]                   	PUSH	LC36
  1276 00000A04 EB D5                           	JMP	L164
  1277 00000A06                                 L165:
  1278 00000A06 68 [000002EF]                   	PUSH	LC21
  1279 00000A0B EB CE                           	JMP	L164
  1280 00000A0D                                 	GLOBAL	_printdeal
  1281 00000A0D                                 _printdeal:
  1282 00000A0D 55                              	PUSH	EBP
  1283 00000A0E 89 E5                           	MOV	EBP,ESP
  1284 00000A10 56                              	PUSH	ESI
  1285 00000A11 53                              	PUSH	EBX
  1286 00000A12 BB 00000006                     	MOV	EBX,6
  1287 00000A17 8B 75 08                        	MOV	ESI,DWORD [8+EBP]
  1288 00000A1A                                 L167:
  1289 00000A1A 56                              	PUSH	ESI
  1290 00000A1B E8 00000760                     	CALL	_getlength
  1291 00000A20 5A                              	POP	EDX
  1292 00000A21 39 C3                           	CMP	EBX,EAX
  1293 00000A23 7D 0E                           	JGE	L172
  1294 00000A25 0F BE 04 33                     	MOVSX	EAX,BYTE [EBX+ESI*1]
  1295 00000A29 50                              	PUSH	EAX
  1296 00000A2A 43                              	INC	EBX
  1297 00000A2B E8 00000DCD                     	CALL	_printchar
  1298 00000A30 59                              	POP	ECX
  1299 00000A31 EB E7                           	JMP	L167
  1300 00000A33                                 L172:
  1301 00000A33 C7 45 08 [000002EF]             	MOV	DWORD [8+EBP],LC21
  1302 00000A3A 8D 65 F8                        	LEA	ESP,DWORD [-8+EBP]
  1303 00000A3D 5B                              	POP	EBX
  1304 00000A3E 5E                              	POP	ESI
  1305 00000A3F 5D                              	POP	EBP
  1306 00000A40 E9 00000720                     	JMP	_print
  1307                                          [SECTION .data]
  1308 00000333                                 LC37:
  1309 00000333 31 2E 61 64 64 0A               	DB	"1.add",0x0A
  1310 00000339 32 2E 73 75 62 0A               	DB	"2.sub",0x0A
  1311 0000033F 33 2E 6D 75 6C 0A               	DB	"3.mul",0x0A
  1312 00000345 34 2E 64 69 76 0A 70 6C 65 61   	DB	"4.div",0x0A,"please switch:",0x00
       0000034F 73 65 20 73 77 69 74 63 68 3A 
       00000359 00 
  1313 0000035A                                 LC41:
  1314 0000035A 32 00                           	DB	"2",0x00
  1315 0000035C                                 LC44:
  1316 0000035C 33 00                           	DB	"3",0x00
  1317 0000035E                                 LC47:
  1318 0000035E 34 00                           	DB	"4",0x00
  1319 00000360                                 LC48:
  1320 00000360 70 6C 65 61 73 65 20 65 6E 74   	DB	"please enter first Dividend:",0x00
       0000036A 65 72 20 66 69 72 73 74 20 44 
       00000374 69 76 69 64 65 6E 64 3A 00 
  1321 0000037D                                 LC49:
  1322 0000037D 70 6C 65 61 73 65 20 65 6E 74   	DB	"please enter second divisor:",0x00
       00000387 65 72 20 73 65 63 6F 6E 64 20 
       00000391 64 69 76 69 73 6F 72 3A 00 
  1323 0000039A                                 LC40:
  1324 0000039A 72 65 73 75 6C 74 3D 00         	DB	"result=",0x00
  1325 000003A2                                 LC50:
  1326 000003A2 65 72 72 6F 72 5B 34 30 34 5D   	DB	"error[404]",0x0A,0x00
       000003AC 0A 00 
  1327 000003AE                                 LC45:
  1328 000003AE 70 6C 65 61 73 65 20 65 6E 74   	DB	"please enter first multiplier:",0x00
       000003B8 65 72 20 66 69 72 73 74 20 6D 
       000003C2 75 6C 74 69 70 6C 69 65 72 3A 
       000003CC 00 
  1329 000003CD                                 LC46:
  1330 000003CD 70 6C 65 61 73 65 20 65 6E 74   	DB	"please enter second multiplier:",0x00
       000003D7 65 72 20 73 65 63 6F 6E 64 20 
       000003E1 6D 75 6C 74 69 70 6C 69 65 72 
       000003EB 3A 00 
  1331 000003ED                                 LC42:
  1332 000003ED 70 6C 65 61 73 65 20 65 6E 74   	DB	"please enter first Minute:",0x00
       000003F7 65 72 20 66 69 72 73 74 20 4D 
       00000401 69 6E 75 74 65 3A 00 
  1333 00000408                                 LC43:
  1334 00000408 70 6C 65 61 73 65 20 65 6E 74   	DB	"please enter second Minus:",0x00
       00000412 65 72 20 73 65 63 6F 6E 64 20 
       0000041C 4D 69 6E 75 73 3A 00 
  1335 00000423                                 LC38:
  1336 00000423 70 6C 65 61 73 65 20 65 6E 74   	DB	"please enter first Addend:",0x00
       0000042D 65 72 20 66 69 72 73 74 20 41 
       00000437 64 64 65 6E 64 3A 00 
  1337 0000043E                                 LC39:
  1338 0000043E 70 6C 65 61 73 65 20 65 6E 74   	DB	"please enter second Addend:",0x00
       00000448 65 72 20 73 65 63 6F 6E 64 20 
       00000452 41 64 64 65 6E 64 3A 00 
  1339                                          [SECTION .text]
  1340 00000A45                                 	GLOBAL	_calcdeal
  1341 00000A45                                 _calcdeal:
  1342 00000A45 55                              	PUSH	EBP
  1343 00000A46 89 E5                           	MOV	EBP,ESP
  1344 00000A48 57                              	PUSH	EDI
  1345 00000A49 56                              	PUSH	ESI
  1346 00000A4A BF [0000032F]                   	MOV	EDI,LC35
  1347 00000A4F 53                              	PUSH	EBX
  1348 00000A50 68 [00000333]                   	PUSH	LC37
  1349 00000A55 E8 0000070B                     	CALL	_print
  1350 00000A5A E8 000008A5                     	CALL	_input_str_SM
  1351 00000A5F 89 C6                           	MOV	ESI,EAX
  1352 00000A61 89 C3                           	MOV	EBX,EAX
  1353 00000A63 FC                              	CLD
  1354 00000A64 B8 00000002                     	MOV	EAX,2
  1355 00000A69 89 C1                           	MOV	ECX,EAX
  1356 00000A6B F3                              	REPE
  1357 00000A6C A6                              	CMPSB
  1358 00000A6D 0F 97 C2                        	SETA	DL
  1359 00000A70 0F 92 C0                        	SETB	AL
  1360 00000A73 5E                              	POP	ESI
  1361 00000A74 38 C2                           	CMP	DL,AL
  1362 00000A76 0F 84 00000122                  	JE	L184
  1363 00000A7C B8 00000002                     	MOV	EAX,2
  1364 00000A81 89 DE                           	MOV	ESI,EBX
  1365 00000A83 FC                              	CLD
  1366 00000A84 BF [0000035A]                   	MOV	EDI,LC41
  1367 00000A89 89 C1                           	MOV	ECX,EAX
  1368 00000A8B F3                              	REPE
  1369 00000A8C A6                              	CMPSB
  1370 00000A8D 0F 84 000000CF                  	JE	L185
  1371 00000A93 B8 00000002                     	MOV	EAX,2
  1372 00000A98 89 DE                           	MOV	ESI,EBX
  1373 00000A9A FC                              	CLD
  1374 00000A9B BF [0000035C]                   	MOV	EDI,LC44
  1375 00000AA0 89 C1                           	MOV	ECX,EAX
  1376 00000AA2 F3                              	REPE
  1377 00000AA3 A6                              	CMPSB
  1378 00000AA4 74 7E                           	JE	L186
  1379 00000AA6 FC                              	CLD
  1380 00000AA7 89 DE                           	MOV	ESI,EBX
  1381 00000AA9 BF [0000035E]                   	MOV	EDI,LC47
  1382 00000AAE B9 00000002                     	MOV	ECX,2
  1383 00000AB3 F3                              	REPE
  1384 00000AB4 A6                              	CMPSB
  1385 00000AB5 75 60                           	JNE	L180
  1386 00000AB7 68 [00000360]                   	PUSH	LC48
  1387 00000ABC E8 000006A4                     	CALL	_print
  1388 00000AC1 E8 0000083E                     	CALL	_input_str_SM
  1389 00000AC6 50                              	PUSH	EAX
  1390 00000AC7 E8 [00000000]                   	CALL	_atoi
  1391 00000ACC 68 [0000037D]                   	PUSH	LC49
  1392 00000AD1 89 C6                           	MOV	ESI,EAX
  1393 00000AD3 E8 0000068D                     	CALL	_print
  1394 00000AD8 E8 00000827                     	CALL	_input_str_SM
  1395 00000ADD 50                              	PUSH	EAX
  1396 00000ADE E8 [00000000]                   	CALL	_atoi
  1397 00000AE3 68 [0000039A]                   	PUSH	LC40
  1398 00000AE8 89 C3                           	MOV	EBX,EAX
  1399 00000AEA E8 00000676                     	CALL	_print
  1400 00000AEF 89 F0                           	MOV	EAX,ESI
  1401 00000AF1 99                              	CDQ
  1402 00000AF2 F7 FB                           	IDIV	EBX
  1403 00000AF4 50                              	PUSH	EAX
  1404 00000AF5                                 L182:
  1405 00000AF5 E8 000004E5                     	CALL	_itoa
  1406 00000AFA 89 04 24                        	MOV	DWORD [ESP],EAX
  1407 00000AFD E8 00000663                     	CALL	_print
  1408 00000B02 68 [000002EF]                   	PUSH	LC21
  1409 00000B07 E8 00000659                     	CALL	_print
  1410 00000B0C 83 C4 1C                        	ADD	ESP,28
  1411 00000B0F                                 L173:
  1412 00000B0F 8D 65 F4                        	LEA	ESP,DWORD [-12+EBP]
  1413 00000B12 5B                              	POP	EBX
  1414 00000B13 5E                              	POP	ESI
  1415 00000B14 5F                              	POP	EDI
  1416 00000B15 5D                              	POP	EBP
  1417 00000B16 C3                              	RET
  1418 00000B17                                 L180:
  1419 00000B17 68 [000003A2]                   	PUSH	LC50
  1420 00000B1C E8 00000644                     	CALL	_print
  1421 00000B21 5B                              	POP	EBX
  1422 00000B22 EB EB                           	JMP	L173
  1423 00000B24                                 L186:
  1424 00000B24 68 [000003AE]                   	PUSH	LC45
  1425 00000B29 E8 00000637                     	CALL	_print
  1426 00000B2E E8 000007D1                     	CALL	_input_str_SM
  1427 00000B33 50                              	PUSH	EAX
  1428 00000B34 E8 [00000000]                   	CALL	_atoi
  1429 00000B39 68 [000003CD]                   	PUSH	LC46
  1430 00000B3E 89 C6                           	MOV	ESI,EAX
  1431 00000B40 E8 00000620                     	CALL	_print
  1432 00000B45 E8 000007BA                     	CALL	_input_str_SM
  1433 00000B4A 50                              	PUSH	EAX
  1434 00000B4B E8 [00000000]                   	CALL	_atoi
  1435 00000B50 68 [0000039A]                   	PUSH	LC40
  1436 00000B55 89 C3                           	MOV	EBX,EAX
  1437 00000B57 E8 00000609                     	CALL	_print
  1438 00000B5C 0F AF F3                        	IMUL	ESI,EBX
  1439 00000B5F                                 L183:
  1440 00000B5F 56                              	PUSH	ESI
  1441 00000B60 EB 93                           	JMP	L182
  1442 00000B62                                 L185:
  1443 00000B62 68 [000003ED]                   	PUSH	LC42
  1444 00000B67 E8 000005F9                     	CALL	_print
  1445 00000B6C E8 00000793                     	CALL	_input_str_SM
  1446 00000B71 50                              	PUSH	EAX
  1447 00000B72 E8 [00000000]                   	CALL	_atoi
  1448 00000B77 68 [00000408]                   	PUSH	LC43
  1449 00000B7C 89 C6                           	MOV	ESI,EAX
  1450 00000B7E E8 000005E2                     	CALL	_print
  1451 00000B83 E8 0000077C                     	CALL	_input_str_SM
  1452 00000B88 50                              	PUSH	EAX
  1453 00000B89 E8 [00000000]                   	CALL	_atoi
  1454 00000B8E 68 [0000039A]                   	PUSH	LC40
  1455 00000B93 89 C3                           	MOV	EBX,EAX
  1456 00000B95 E8 000005CB                     	CALL	_print
  1457 00000B9A 29 DE                           	SUB	ESI,EBX
  1458 00000B9C EB C1                           	JMP	L183
  1459 00000B9E                                 L184:
  1460 00000B9E 68 [00000423]                   	PUSH	LC38
  1461 00000BA3 E8 000005BD                     	CALL	_print
  1462 00000BA8 E8 00000757                     	CALL	_input_str_SM
  1463 00000BAD 50                              	PUSH	EAX
  1464 00000BAE E8 [00000000]                   	CALL	_atoi
  1465 00000BB3 68 [0000043E]                   	PUSH	LC39
  1466 00000BB8 89 C6                           	MOV	ESI,EAX
  1467 00000BBA E8 000005A6                     	CALL	_print
  1468 00000BBF E8 00000740                     	CALL	_input_str_SM
  1469 00000BC4 50                              	PUSH	EAX
  1470 00000BC5 E8 [00000000]                   	CALL	_atoi
  1471 00000BCA 68 [0000039A]                   	PUSH	LC40
  1472 00000BCF 89 C3                           	MOV	EBX,EAX
  1473 00000BD1 E8 0000058F                     	CALL	_print
  1474 00000BD6 8D 04 33                        	LEA	EAX,DWORD [EBX+ESI*1]
  1475 00000BD9 50                              	PUSH	EAX
  1476 00000BDA E9 FFFFFF16                     	JMP	L182
  1477                                          [SECTION .data]
  1478 0000045A                                 LC52:
  1479 0000045A 4E 6F 74 20 66 6F 75 6E 64 20   	DB	"Not found this file(you can't add EXT in you input name)",0x0A,0x00
       00000464 74 68 69 73 20 66 69 6C 65 28 
       0000046E 79 6F 75 20 63 61 6E 27 74 20 
       00000478 61 64 64 20 45 58 54 20 69 6E 
       00000482 20 79 6F 75 20 69 6E 70 75 74 
       0000048C 20 6E 61 6D 65 29 0A 00 
  1480                                          [SECTION .text]
  1481 00000BDF                                 	GLOBAL	_type_deal
  1482 00000BDF                                 _type_deal:
  1483 00000BDF 55                              	PUSH	EBP
  1484 00000BE0 31 C0                           	XOR	EAX,EAX
  1485 00000BE2 89 E5                           	MOV	EBP,ESP
  1486 00000BE4 B9 0000001E                     	MOV	ECX,30
  1487 00000BE9 57                              	PUSH	EDI
  1488 00000BEA 56                              	PUSH	ESI
  1489 00000BEB 8D 7D D4                        	LEA	EDI,DWORD [-44+EBP]
  1490 00000BEE 53                              	PUSH	EBX
  1491 00000BEF 31 DB                           	XOR	EBX,EBX
  1492 00000BF1 FC                              	CLD
  1493 00000BF2 83 EC 20                        	SUB	ESP,32
  1494 00000BF5 8B 75 08                        	MOV	ESI,DWORD [8+EBP]
  1495 00000BF8 F3                              	REP
  1496 00000BF9 AA                              	STOSB
  1497 00000BFA 56                              	PUSH	ESI
  1498 00000BFB FF 35 [00000658]                	PUSH	DWORD [_name_1]
  1499 00000C01 E8 [00000000]                   	CALL	_strcpy
  1500 00000C06 5F                              	POP	EDI
  1501 00000C07 58                              	POP	EAX
  1502 00000C08 31 FF                           	XOR	EDI,EDI
  1503 00000C0A                                 L212:
  1504 00000C0A                                 L192:
  1505 00000C0A 8A 87 0000A600                  	MOV	AL,BYTE [42496+EDI]
  1506 00000C10 84 C0                           	TEST	AL,AL
  1507 00000C12 74 69                           	JE	L213
  1508 00000C14 3C E5                           	CMP	AL,-27
  1509 00000C16 74 59                           	JE	L190
  1510 00000C18 F6 87 0000A60B 18               	TEST	BYTE [42507+EDI],24
  1511 00000C1F 75 50                           	JNE	L190
  1512 00000C21 31 C9                           	XOR	ECX,ECX
  1513 00000C23 8D 97 0000A600                  	LEA	EDX,DWORD [42496+EDI]
  1514 00000C29                                 L200:
  1515 00000C29 8A 02                           	MOV	AL,BYTE [EDX]
  1516 00000C2B 42                              	INC	EDX
  1517 00000C2C 88 44 0D D4                     	MOV	BYTE [-44+EBP+ECX*1],AL
  1518 00000C30 41                              	INC	ECX
  1519 00000C31 83 F9 07                        	CMP	ECX,7
  1520 00000C34 7E F3                           	JLE	L200
  1521 00000C36 8A 87 0000A608                  	MOV	AL,BYTE [42504+EDI]
  1522 00000C3C B9 00000001                     	MOV	ECX,1
  1523 00000C41 88 45 DD                        	MOV	BYTE [-35+EBP],AL
  1524 00000C44 31 D2                           	XOR	EDX,EDX
  1525 00000C46 8A 87 0000A609                  	MOV	AL,BYTE [42505+EDI]
  1526 00000C4C 88 45 DE                        	MOV	BYTE [-34+EBP],AL
  1527 00000C4F 8A 87 0000A60A                  	MOV	AL,BYTE [42506+EDI]
  1528 00000C55 88 45 DF                        	MOV	BYTE [-33+EBP],AL
  1529 00000C58                                 L209:
  1530 00000C58 8A 44 15 D4                     	MOV	AL,BYTE [-44+EBP+EDX*1]
  1531 00000C5C 3C 20                           	CMP	AL,32
  1532 00000C5E 74 0E                           	JE	L202
  1533 00000C60 3A 44 32 04                     	CMP	AL,BYTE [4+EDX+ESI*1]
  1534 00000C64 74 02                           	JE	L203
  1535 00000C66 31 C9                           	XOR	ECX,ECX
  1536 00000C68                                 L203:
  1537 00000C68 42                              	INC	EDX
  1538 00000C69 83 FA 08                        	CMP	EDX,8
  1539 00000C6C 7E EA                           	JLE	L209
  1540 00000C6E                                 L202:
  1541 00000C6E 49                              	DEC	ECX
  1542 00000C6F 74 1E                           	JE	L219
  1543 00000C71                                 L190:
  1544 00000C71 43                              	INC	EBX
  1545 00000C72 83 C7 20                        	ADD	EDI,32
  1546 00000C75 81 FB 000000DF                  	CMP	EBX,223
  1547 00000C7B 7E 8D                           	JLE	L212
  1548 00000C7D                                 L213:
  1549 00000C7D 68 [0000045A]                   	PUSH	LC52
  1550 00000C82                                 L218:
  1551 00000C82 E8 000004DE                     	CALL	_print
  1552 00000C87 8D 65 F4                        	LEA	ESP,DWORD [-12+EBP]
  1553 00000C8A 5B                              	POP	EBX
  1554 00000C8B 5E                              	POP	ESI
  1555 00000C8C 5F                              	POP	EDI
  1556 00000C8D 5D                              	POP	EBP
  1557 00000C8E C3                              	RET
  1558 00000C8F                                 L219:
  1559 00000C8F                                 L211:
  1560 00000C8F 0F B7 87 0000A61A               	MOVZX	EAX,WORD [42522+EDI]
  1561 00000C96 C1 E0 09                        	SAL	EAX,9
  1562 00000C99 05 0000BE00                     	ADD	EAX,48640
  1563 00000C9E 50                              	PUSH	EAX
  1564 00000C9F E8 000004C1                     	CALL	_print
  1565 00000CA4 68 [000002EF]                   	PUSH	LC21
  1566 00000CA9 EB D7                           	JMP	L218
  1567                                          [SECTION .data]
  1568 00000494                                 LC53:
  1569 00000494 46 49 4C 45 4E 41 4D 45 20 20   	DB	"FILENAME   EXT   LENGTH",0x0A,0x00
       0000049E 20 45 58 54 20 20 20 4C 45 4E 
       000004A8 47 54 48 0A 00 
  1570 000004AD                                 LC55:
  1571 000004AD 20 20 20 20 00                  	DB	"    ",0x00
  1572 000004B2                                 LC54:
  1573 000004B2 20 20 20 00                     	DB	"   ",0x00
  1574                                          [SECTION .text]
  1575 00000CAB                                 	GLOBAL	_cmd_dir
  1576 00000CAB                                 _cmd_dir:
  1577 00000CAB 55                              	PUSH	EBP
  1578 00000CAC 31 C0                           	XOR	EAX,EAX
  1579 00000CAE 89 E5                           	MOV	EBP,ESP
  1580 00000CB0 B9 0000001E                     	MOV	ECX,30
  1581 00000CB5 57                              	PUSH	EDI
  1582 00000CB6 56                              	PUSH	ESI
  1583 00000CB7 8D 7D D4                        	LEA	EDI,DWORD [-44+EBP]
  1584 00000CBA FC                              	CLD
  1585 00000CBB 53                              	PUSH	EBX
  1586 00000CBC 31 F6                           	XOR	ESI,ESI
  1587 00000CBE 83 EC 20                        	SUB	ESP,32
  1588 00000CC1 31 DB                           	XOR	EBX,EBX
  1589 00000CC3 F3                              	REP
  1590 00000CC4 AA                              	STOSB
  1591 00000CC5 68 [00000494]                   	PUSH	LC53
  1592 00000CCA E8 00000496                     	CALL	_print
  1593 00000CCF 58                              	POP	EAX
  1594 00000CD0                                 L241:
  1595 00000CD0 8A 83 0000A600                  	MOV	AL,BYTE [42496+EBX]
  1596 00000CD6 84 C0                           	TEST	AL,AL
  1597 00000CD8 0F 84 0000009A                  	JE	L222
  1598 00000CDE 3C E5                           	CMP	AL,-27
  1599 00000CE0 0F 84 00000082                  	JE	L223
  1600 00000CE6 F6 83 0000A60B 18               	TEST	BYTE [42507+EBX],24
  1601 00000CED 75 79                           	JNE	L223
  1602 00000CEF 31 C9                           	XOR	ECX,ECX
  1603 00000CF1 8D 93 0000A600                  	LEA	EDX,DWORD [42496+EBX]
  1604 00000CF7                                 L232:
  1605 00000CF7 8A 02                           	MOV	AL,BYTE [EDX]
  1606 00000CF9 42                              	INC	EDX
  1607 00000CFA 88 44 0D D4                     	MOV	BYTE [-44+EBP+ECX*1],AL
  1608 00000CFE 41                              	INC	ECX
  1609 00000CFF 83 F9 07                        	CMP	ECX,7
  1610 00000D02 7E F3                           	JLE	L232
  1611 00000D04 8A 83 0000A608                  	MOV	AL,BYTE [42504+EBX]
  1612 00000D0A 31 FF                           	XOR	EDI,EDI
  1613 00000D0C 88 45 DD                        	MOV	BYTE [-35+EBP],AL
  1614 00000D0F 8A 83 0000A609                  	MOV	AL,BYTE [42505+EBX]
  1615 00000D15 88 45 DE                        	MOV	BYTE [-34+EBP],AL
  1616 00000D18 8A 83 0000A60A                  	MOV	AL,BYTE [42506+EBX]
  1617 00000D1E 88 45 DF                        	MOV	BYTE [-33+EBP],AL
  1618 00000D21                                 L240:
  1619 00000D21 83 FF 09                        	CMP	EDI,9
  1620 00000D24 74 70                           	JE	L248
  1621 00000D26                                 L237:
  1622 00000D26 8A 44 3D D4                     	MOV	AL,BYTE [-44+EBP+EDI*1]
  1623 00000D2A 3C 0A                           	CMP	AL,10
  1624 00000D2C 74 5C                           	JE	L249
  1625 00000D2E 0F BE C0                        	MOVSX	EAX,AL
  1626 00000D31 50                              	PUSH	EAX
  1627 00000D32 E8 00000776                     	CALL	_putchar
  1628 00000D37                                 L247:
  1629 00000D37 47                              	INC	EDI
  1630 00000D38 58                              	POP	EAX
  1631 00000D39 83 FF 0B                        	CMP	EDI,11
  1632 00000D3C 7E E3                           	JLE	L240
  1633 00000D3E 68 [000004AD]                   	PUSH	LC55
  1634 00000D43 E8 0000041D                     	CALL	_print
  1635 00000D48 FF B3 0000A61C                  	PUSH	DWORD [42524+EBX]
  1636 00000D4E E8 0000028C                     	CALL	_itoa
  1637 00000D53 89 04 24                        	MOV	DWORD [ESP],EAX
  1638 00000D56 E8 0000040A                     	CALL	_print
  1639 00000D5B 68 [000002EF]                   	PUSH	LC21
  1640 00000D60 E8 00000400                     	CALL	_print
  1641 00000D65 83 C4 0C                        	ADD	ESP,12
  1642 00000D68                                 L223:
  1643 00000D68 46                              	INC	ESI
  1644 00000D69 83 C3 20                        	ADD	EBX,32
  1645 00000D6C 81 FE 000000DF                  	CMP	ESI,223
  1646 00000D72 0F 8E FFFFFF58                  	JLE	L241
  1647 00000D78                                 L222:
  1648 00000D78 68 [000002EF]                   	PUSH	LC21
  1649 00000D7D E8 000003E3                     	CALL	_print
  1650 00000D82 8D 65 F4                        	LEA	ESP,DWORD [-12+EBP]
  1651 00000D85 5B                              	POP	EBX
  1652 00000D86 5E                              	POP	ESI
  1653 00000D87 5F                              	POP	EDI
  1654 00000D88 5D                              	POP	EBP
  1655 00000D89 C3                              	RET
  1656 00000D8A                                 L249:
  1657 00000D8A 68 [000004B2]                   	PUSH	LC54
  1658 00000D8F E8 000003D1                     	CALL	_print
  1659 00000D94 EB A1                           	JMP	L247
  1660 00000D96                                 L248:
  1661 00000D96 68 [000004B2]                   	PUSH	LC54
  1662 00000D9B E8 000003C5                     	CALL	_print
  1663 00000DA0 58                              	POP	EAX
  1664 00000DA1 EB 83                           	JMP	L237
  1665 00000DA3                                 	GLOBAL	_fopen
  1666 00000DA3                                 _fopen:
  1667 00000DA3 55                              	PUSH	EBP
  1668 00000DA4 31 C0                           	XOR	EAX,EAX
  1669 00000DA6 89 E5                           	MOV	EBP,ESP
  1670 00000DA8 B9 0000001E                     	MOV	ECX,30
  1671 00000DAD 57                              	PUSH	EDI
  1672 00000DAE 56                              	PUSH	ESI
  1673 00000DAF 8D 7D D4                        	LEA	EDI,DWORD [-44+EBP]
  1674 00000DB2 53                              	PUSH	EBX
  1675 00000DB3 31 DB                           	XOR	EBX,EBX
  1676 00000DB5 FC                              	CLD
  1677 00000DB6 83 EC 20                        	SUB	ESP,32
  1678 00000DB9 8B 75 08                        	MOV	ESI,DWORD [8+EBP]
  1679 00000DBC F3                              	REP
  1680 00000DBD AA                              	STOSB
  1681 00000DBE 56                              	PUSH	ESI
  1682 00000DBF 31 FF                           	XOR	EDI,EDI
  1683 00000DC1 FF 35 [00000658]                	PUSH	DWORD [_name_1]
  1684 00000DC7 E8 [00000000]                   	CALL	_strcpy
  1685 00000DCC 58                              	POP	EAX
  1686 00000DCD 5A                              	POP	EDX
  1687 00000DCE                                 L275:
  1688 00000DCE                                 L255:
  1689 00000DCE 8A 87 0000A600                  	MOV	AL,BYTE [42496+EDI]
  1690 00000DD4 84 C0                           	TEST	AL,AL
  1691 00000DD6 74 68                           	JE	L276
  1692 00000DD8 3C E5                           	CMP	AL,-27
  1693 00000DDA 74 58                           	JE	L253
  1694 00000DDC F6 87 0000A60B 18               	TEST	BYTE [42507+EDI],24
  1695 00000DE3 75 4F                           	JNE	L253
  1696 00000DE5 31 C9                           	XOR	ECX,ECX
  1697 00000DE7 8D 97 0000A600                  	LEA	EDX,DWORD [42496+EDI]
  1698 00000DED                                 L263:
  1699 00000DED 8A 02                           	MOV	AL,BYTE [EDX]
  1700 00000DEF 42                              	INC	EDX
  1701 00000DF0 88 44 0D D4                     	MOV	BYTE [-44+EBP+ECX*1],AL
  1702 00000DF4 41                              	INC	ECX
  1703 00000DF5 83 F9 07                        	CMP	ECX,7
  1704 00000DF8 7E F3                           	JLE	L263
  1705 00000DFA 8A 87 0000A608                  	MOV	AL,BYTE [42504+EDI]
  1706 00000E00 B9 00000001                     	MOV	ECX,1
  1707 00000E05 88 45 DD                        	MOV	BYTE [-35+EBP],AL
  1708 00000E08 31 D2                           	XOR	EDX,EDX
  1709 00000E0A 8A 87 0000A609                  	MOV	AL,BYTE [42505+EDI]
  1710 00000E10 88 45 DE                        	MOV	BYTE [-34+EBP],AL
  1711 00000E13 8A 87 0000A60A                  	MOV	AL,BYTE [42506+EDI]
  1712 00000E19 88 45 DF                        	MOV	BYTE [-33+EBP],AL
  1713 00000E1C                                 L272:
  1714 00000E1C 8A 44 15 D4                     	MOV	AL,BYTE [-44+EBP+EDX*1]
  1715 00000E20 3C 20                           	CMP	AL,32
  1716 00000E22 74 0D                           	JE	L265
  1717 00000E24 3A 04 32                        	CMP	AL,BYTE [EDX+ESI*1]
  1718 00000E27 74 02                           	JE	L266
  1719 00000E29 31 C9                           	XOR	ECX,ECX
  1720 00000E2B                                 L266:
  1721 00000E2B 42                              	INC	EDX
  1722 00000E2C 83 FA 08                        	CMP	EDX,8
  1723 00000E2F 7E EB                           	JLE	L272
  1724 00000E31                                 L265:
  1725 00000E31 49                              	DEC	ECX
  1726 00000E32 74 16                           	JE	L281
  1727 00000E34                                 L253:
  1728 00000E34 43                              	INC	EBX
  1729 00000E35 83 C7 20                        	ADD	EDI,32
  1730 00000E38 81 FB 000000DF                  	CMP	EBX,223
  1731 00000E3E 7E 8E                           	JLE	L275
  1732 00000E40                                 L276:
  1733 00000E40 31 C0                           	XOR	EAX,EAX
  1734 00000E42                                 L250:
  1735 00000E42 8D 65 F4                        	LEA	ESP,DWORD [-12+EBP]
  1736 00000E45 5B                              	POP	EBX
  1737 00000E46 5E                              	POP	ESI
  1738 00000E47 5F                              	POP	EDI
  1739 00000E48 5D                              	POP	EBP
  1740 00000E49 C3                              	RET
  1741 00000E4A                                 L281:
  1742 00000E4A                                 L274:
  1743 00000E4A 0F B7 87 0000A61A               	MOVZX	EAX,WORD [42522+EDI]
  1744 00000E51 C1 E0 09                        	SAL	EAX,9
  1745 00000E54 05 0000BE00                     	ADD	EAX,48640
  1746 00000E59 EB E7                           	JMP	L250
  1747 00000E5B                                 	GLOBAL	_fopen_getlen
  1748 00000E5B                                 _fopen_getlen:
  1749 00000E5B 55                              	PUSH	EBP
  1750 00000E5C 31 C0                           	XOR	EAX,EAX
  1751 00000E5E 89 E5                           	MOV	EBP,ESP
  1752 00000E60 B9 0000001E                     	MOV	ECX,30
  1753 00000E65 57                              	PUSH	EDI
  1754 00000E66 56                              	PUSH	ESI
  1755 00000E67 8D 7D D4                        	LEA	EDI,DWORD [-44+EBP]
  1756 00000E6A 53                              	PUSH	EBX
  1757 00000E6B 31 DB                           	XOR	EBX,EBX
  1758 00000E6D FC                              	CLD
  1759 00000E6E 83 EC 20                        	SUB	ESP,32
  1760 00000E71 8B 75 08                        	MOV	ESI,DWORD [8+EBP]
  1761 00000E74 F3                              	REP
  1762 00000E75 AA                              	STOSB
  1763 00000E76 56                              	PUSH	ESI
  1764 00000E77 FF 35 [00000658]                	PUSH	DWORD [_name_1]
  1765 00000E7D E8 [00000000]                   	CALL	_strcpy
  1766 00000E82 59                              	POP	ECX
  1767 00000E83 5F                              	POP	EDI
  1768 00000E84 31 FF                           	XOR	EDI,EDI
  1769 00000E86                                 L307:
  1770 00000E86                                 L287:
  1771 00000E86 8A 87 0000A600                  	MOV	AL,BYTE [42496+EDI]
  1772 00000E8C 84 C0                           	TEST	AL,AL
  1773 00000E8E 74 68                           	JE	L308
  1774 00000E90 3C E5                           	CMP	AL,-27
  1775 00000E92 74 58                           	JE	L285
  1776 00000E94 F6 87 0000A60B 18               	TEST	BYTE [42507+EDI],24
  1777 00000E9B 75 4F                           	JNE	L285
  1778 00000E9D 31 C9                           	XOR	ECX,ECX
  1779 00000E9F 8D 97 0000A600                  	LEA	EDX,DWORD [42496+EDI]
  1780 00000EA5                                 L295:
  1781 00000EA5 8A 02                           	MOV	AL,BYTE [EDX]
  1782 00000EA7 42                              	INC	EDX
  1783 00000EA8 88 44 0D D4                     	MOV	BYTE [-44+EBP+ECX*1],AL
  1784 00000EAC 41                              	INC	ECX
  1785 00000EAD 83 F9 07                        	CMP	ECX,7
  1786 00000EB0 7E F3                           	JLE	L295
  1787 00000EB2 8A 87 0000A608                  	MOV	AL,BYTE [42504+EDI]
  1788 00000EB8 B9 00000001                     	MOV	ECX,1
  1789 00000EBD 88 45 DD                        	MOV	BYTE [-35+EBP],AL
  1790 00000EC0 31 D2                           	XOR	EDX,EDX
  1791 00000EC2 8A 87 0000A609                  	MOV	AL,BYTE [42505+EDI]
  1792 00000EC8 88 45 DE                        	MOV	BYTE [-34+EBP],AL
  1793 00000ECB 8A 87 0000A60A                  	MOV	AL,BYTE [42506+EDI]
  1794 00000ED1 88 45 DF                        	MOV	BYTE [-33+EBP],AL
  1795 00000ED4                                 L304:
  1796 00000ED4 8A 44 15 D4                     	MOV	AL,BYTE [-44+EBP+EDX*1]
  1797 00000ED8 3C 20                           	CMP	AL,32
  1798 00000EDA 74 0D                           	JE	L297
  1799 00000EDC 3A 04 32                        	CMP	AL,BYTE [EDX+ESI*1]
  1800 00000EDF 74 02                           	JE	L298
  1801 00000EE1 31 C9                           	XOR	ECX,ECX
  1802 00000EE3                                 L298:
  1803 00000EE3 42                              	INC	EDX
  1804 00000EE4 83 FA 08                        	CMP	EDX,8
  1805 00000EE7 7E EB                           	JLE	L304
  1806 00000EE9                                 L297:
  1807 00000EE9 49                              	DEC	ECX
  1808 00000EEA 74 17                           	JE	L313
  1809 00000EEC                                 L285:
  1810 00000EEC 43                              	INC	EBX
  1811 00000EED 83 C7 20                        	ADD	EDI,32
  1812 00000EF0 81 FB 000000DF                  	CMP	EBX,223
  1813 00000EF6 7E 8E                           	JLE	L307
  1814 00000EF8                                 L308:
  1815 00000EF8 83 C8 FF                        	OR	EAX,-1
  1816 00000EFB                                 L282:
  1817 00000EFB 8D 65 F4                        	LEA	ESP,DWORD [-12+EBP]
  1818 00000EFE 5B                              	POP	EBX
  1819 00000EFF 5E                              	POP	ESI
  1820 00000F00 5F                              	POP	EDI
  1821 00000F01 5D                              	POP	EBP
  1822 00000F02 C3                              	RET
  1823 00000F03                                 L313:
  1824 00000F03                                 L306:
  1825 00000F03 8B 87 0000A61C                  	MOV	EAX,DWORD [42524+EDI]
  1826 00000F09 EB F0                           	JMP	L282
  1827                                          [SECTION .data]
  1828 000004B6                                 LC56:
  1829 000004B6 4E 6F 74 20 66 6F 75 6E 64 20   	DB	"Not found this file",0x0A,0x00
       000004C0 74 68 69 73 20 66 69 6C 65 0A 
       000004CA 00 
  1830                                          [SECTION .text]
  1831 00000F0B                                 	GLOBAL	_cmd_type
  1832 00000F0B                                 _cmd_type:
  1833 00000F0B 55                              	PUSH	EBP
  1834 00000F0C 31 C0                           	XOR	EAX,EAX
  1835 00000F0E 89 E5                           	MOV	EBP,ESP
  1836 00000F10 B9 0000001E                     	MOV	ECX,30
  1837 00000F15 57                              	PUSH	EDI
  1838 00000F16 56                              	PUSH	ESI
  1839 00000F17 8D 7D D4                        	LEA	EDI,DWORD [-44+EBP]
  1840 00000F1A 53                              	PUSH	EBX
  1841 00000F1B 31 DB                           	XOR	EBX,EBX
  1842 00000F1D FC                              	CLD
  1843 00000F1E 83 EC 20                        	SUB	ESP,32
  1844 00000F21 8B 75 08                        	MOV	ESI,DWORD [8+EBP]
  1845 00000F24 F3                              	REP
  1846 00000F25 AA                              	STOSB
  1847 00000F26 56                              	PUSH	ESI
  1848 00000F27 31 FF                           	XOR	EDI,EDI
  1849 00000F29 FF 35 [00000658]                	PUSH	DWORD [_name_1]
  1850 00000F2F E8 [00000000]                   	CALL	_strcpy
  1851 00000F34 58                              	POP	EAX
  1852 00000F35 5A                              	POP	EDX
  1853 00000F36                                 L339:
  1854 00000F36                                 L319:
  1855 00000F36 8A 87 0000A600                  	MOV	AL,BYTE [42496+EDI]
  1856 00000F3C 84 C0                           	TEST	AL,AL
  1857 00000F3E 74 68                           	JE	L340
  1858 00000F40 3C E5                           	CMP	AL,-27
  1859 00000F42 74 58                           	JE	L317
  1860 00000F44 F6 87 0000A60B 18               	TEST	BYTE [42507+EDI],24
  1861 00000F4B 75 4F                           	JNE	L317
  1862 00000F4D 31 C9                           	XOR	ECX,ECX
  1863 00000F4F 8D 97 0000A600                  	LEA	EDX,DWORD [42496+EDI]
  1864 00000F55                                 L327:
  1865 00000F55 8A 02                           	MOV	AL,BYTE [EDX]
  1866 00000F57 42                              	INC	EDX
  1867 00000F58 88 44 0D D4                     	MOV	BYTE [-44+EBP+ECX*1],AL
  1868 00000F5C 41                              	INC	ECX
  1869 00000F5D 83 F9 07                        	CMP	ECX,7
  1870 00000F60 7E F3                           	JLE	L327
  1871 00000F62 8A 87 0000A608                  	MOV	AL,BYTE [42504+EDI]
  1872 00000F68 B9 00000001                     	MOV	ECX,1
  1873 00000F6D 88 45 DD                        	MOV	BYTE [-35+EBP],AL
  1874 00000F70 31 D2                           	XOR	EDX,EDX
  1875 00000F72 8A 87 0000A609                  	MOV	AL,BYTE [42505+EDI]
  1876 00000F78 88 45 DE                        	MOV	BYTE [-34+EBP],AL
  1877 00000F7B 8A 87 0000A60A                  	MOV	AL,BYTE [42506+EDI]
  1878 00000F81 88 45 DF                        	MOV	BYTE [-33+EBP],AL
  1879 00000F84                                 L336:
  1880 00000F84 8A 44 15 D4                     	MOV	AL,BYTE [-44+EBP+EDX*1]
  1881 00000F88 3C 20                           	CMP	AL,32
  1882 00000F8A 74 0D                           	JE	L329
  1883 00000F8C 3A 04 32                        	CMP	AL,BYTE [EDX+ESI*1]
  1884 00000F8F 74 02                           	JE	L330
  1885 00000F91 31 C9                           	XOR	ECX,ECX
  1886 00000F93                                 L330:
  1887 00000F93 42                              	INC	EDX
  1888 00000F94 83 FA 08                        	CMP	EDX,8
  1889 00000F97 7E EB                           	JLE	L336
  1890 00000F99                                 L329:
  1891 00000F99 49                              	DEC	ECX
  1892 00000F9A 74 1E                           	JE	L346
  1893 00000F9C                                 L317:
  1894 00000F9C 43                              	INC	EBX
  1895 00000F9D 83 C7 20                        	ADD	EDI,32
  1896 00000FA0 81 FB 000000DF                  	CMP	EBX,223
  1897 00000FA6 7E 8E                           	JLE	L339
  1898 00000FA8                                 L340:
  1899 00000FA8 68 [000004B6]                   	PUSH	LC56
  1900 00000FAD                                 L345:
  1901 00000FAD E8 000001B3                     	CALL	_print
  1902 00000FB2 8D 65 F4                        	LEA	ESP,DWORD [-12+EBP]
  1903 00000FB5 5B                              	POP	EBX
  1904 00000FB6 5E                              	POP	ESI
  1905 00000FB7 5F                              	POP	EDI
  1906 00000FB8 5D                              	POP	EBP
  1907 00000FB9 C3                              	RET
  1908 00000FBA                                 L346:
  1909 00000FBA                                 L338:
  1910 00000FBA 0F B7 87 0000A61A               	MOVZX	EAX,WORD [42522+EDI]
  1911 00000FC1 C1 E0 09                        	SAL	EAX,9
  1912 00000FC4 05 0000BE00                     	ADD	EAX,48640
  1913 00000FC9 50                              	PUSH	EAX
  1914 00000FCA E8 00000196                     	CALL	_print
  1915 00000FCF 68 [000002EF]                   	PUSH	LC21
  1916 00000FD4 EB D7                           	JMP	L345
  1917 00000FD6                                 	GLOBAL	_str_c
  1918 00000FD6                                 _str_c:
  1919 00000FD6 55                              	PUSH	EBP
  1920 00000FD7 89 E5                           	MOV	EBP,ESP
  1921 00000FD9 5D                              	POP	EBP
  1922 00000FDA E9 [00000000]                   	JMP	_strcmp
  1923 00000FDF                                 	GLOBAL	_itoa
  1924 00000FDF                                 _itoa:
  1925 00000FDF 55                              	PUSH	EBP
  1926 00000FE0 89 E5                           	MOV	EBP,ESP
  1927 00000FE2 53                              	PUSH	EBX
  1928 00000FE3 FF 75 08                        	PUSH	DWORD [8+EBP]
  1929 00000FE6 53                              	PUSH	EBX
  1930 00000FE7 E8 00000071                     	CALL	_Myitoa
  1931 00000FEC 53                              	PUSH	EBX
  1932 00000FED E8 0000018E                     	CALL	_getlength
  1933 00000FF2 89 04 24                        	MOV	DWORD [ESP],EAX
  1934 00000FF5 53                              	PUSH	EBX
  1935 00000FF6 E8 000000AB                     	CALL	_revstr
  1936 00000FFB 8B 5D FC                        	MOV	EBX,DWORD [-4+EBP]
  1937 00000FFE C9                              	LEAVE
  1938 00000FFF C3                              	RET
  1939                                          [SECTION .data]
  1940 000004CB                                 LC57:
  1941 000004CB 65 72 72 6F 72 3A 20 64 61 74   	DB	"error: data overflow...",0x0A,0x00
       000004D5 61 20 6F 76 65 72 66 6C 6F 77 
       000004DF 2E 2E 2E 0A 00 
  1942                                          [SECTION .text]
  1943 00001000                                 	GLOBAL	_my_atoi
  1944 00001000                                 _my_atoi:
  1945 00001000 55                              	PUSH	EBP
  1946 00001001 89 E5                           	MOV	EBP,ESP
  1947 00001003 56                              	PUSH	ESI
  1948 00001004 53                              	PUSH	EBX
  1949 00001005 31 F6                           	XOR	ESI,ESI
  1950 00001007 8B 4D 08                        	MOV	ECX,DWORD [8+EBP]
  1951 0000100A 31 DB                           	XOR	EBX,EBX
  1952 0000100C 8A 01                           	MOV	AL,BYTE [ECX]
  1953 0000100E 3C 2D                           	CMP	AL,45
  1954 00001010 74 46                           	JE	L361
  1955 00001012                                 L350:
  1956 00001012 84 C0                           	TEST	AL,AL
  1957 00001014 74 21                           	JE	L352
  1958 00001016                                 L357:
  1959 00001016 8A 11                           	MOV	DL,BYTE [ECX]
  1960 00001018 8D 42 D0                        	LEA	EAX,DWORD [-48+EDX]
  1961 0000101B 3C 09                           	CMP	AL,9
  1962 0000101D 77 36                           	JA	L354
  1963 0000101F 6B C3 0A                        	IMUL	EAX,EBX,10
  1964 00001022 0F BE D2                        	MOVSX	EDX,DL
  1965 00001025 41                              	INC	ECX
  1966 00001026 8D 5C 10 D0                     	LEA	EBX,DWORD [-48+EAX+EDX*1]
  1967 0000102A 81 FB 0CCCCCCC                  	CMP	EBX,214748364
  1968 00001030 7F 16                           	JG	L362
  1969 00001032                                 L351:
  1970 00001032 80 39 00                        	CMP	BYTE [ECX],0
  1971 00001035 75 DF                           	JNE	L357
  1972 00001037                                 L352:
  1973 00001037 89 D8                           	MOV	EAX,EBX
  1974 00001039 85 F6                           	TEST	ESI,ESI
  1975 0000103B 78 07                           	JS	L363
  1976 0000103D                                 L349:
  1977 0000103D 8D 65 F8                        	LEA	ESP,DWORD [-8+EBP]
  1978 00001040 5B                              	POP	EBX
  1979 00001041 5E                              	POP	ESI
  1980 00001042 5D                              	POP	EBP
  1981 00001043 C3                              	RET
  1982 00001044                                 L363:
  1983 00001044 F7 D8                           	NEG	EAX
  1984 00001046 EB F5                           	JMP	L349
  1985 00001048                                 L362:
  1986 00001048 68 [000004CB]                   	PUSH	LC57
  1987 0000104D E8 00000113                     	CALL	_print
  1988 00001052 59                              	POP	ECX
  1989 00001053 EB E2                           	JMP	L352
  1990 00001055                                 L354:
  1991 00001055 41                              	INC	ECX
  1992 00001056 EB DA                           	JMP	L351
  1993 00001058                                 L361:
  1994 00001058 83 CE FF                        	OR	ESI,-1
  1995 0000105B EB B5                           	JMP	L350
  1996 0000105D                                 	GLOBAL	_Myitoa
  1997 0000105D                                 _Myitoa:
  1998 0000105D 55                              	PUSH	EBP
  1999 0000105E 89 E5                           	MOV	EBP,ESP
  2000 00001060 56                              	PUSH	ESI
  2001 00001061 53                              	PUSH	EBX
  2002 00001062 8B 5D 0C                        	MOV	EBX,DWORD [12+EBP]
  2003 00001065 8B 4D 08                        	MOV	ECX,DWORD [8+EBP]
  2004 00001068 85 DB                           	TEST	EBX,EBX
  2005 0000106A 75 0B                           	JNE	L369
  2006 0000106C C6 01 30                        	MOV	BYTE [ECX],48
  2007 0000106F 41                              	INC	ECX
  2008 00001070                                 L371:
  2009 00001070 C6 01 00                        	MOV	BYTE [ECX],0
  2010 00001073 5B                              	POP	EBX
  2011 00001074 5E                              	POP	ESI
  2012 00001075 5D                              	POP	EBP
  2013 00001076 C3                              	RET
  2014 00001077                                 L369:
  2015 00001077 89 D8                           	MOV	EAX,EBX
  2016 00001079 BA 0000000A                     	MOV	EDX,10
  2017 0000107E 89 D6                           	MOV	ESI,EDX
  2018 00001080 99                              	CDQ
  2019 00001081 F7 FE                           	IDIV	ESI
  2020 00001083 83 C2 30                        	ADD	EDX,48
  2021 00001086 89 C3                           	MOV	EBX,EAX
  2022 00001088 88 11                           	MOV	BYTE [ECX],DL
  2023 0000108A 41                              	INC	ECX
  2024 0000108B 85 C0                           	TEST	EAX,EAX
  2025 0000108D 75 E8                           	JNE	L369
  2026 0000108F EB DF                           	JMP	L371
  2027 00001091                                 	GLOBAL	_scanToAcill
  2028 00001091                                 _scanToAcill:
  2029 00001091 55                              	PUSH	EBP
  2030 00001092 89 E5                           	MOV	EBP,ESP
  2031 00001094 81 7D 08 00311E1E               	CMP	DWORD [8+EBP],3218974
  2032 0000109B 74 02                           	JE	L374
  2033 0000109D                                 L372:
  2034 0000109D 5D                              	POP	EBP
  2035 0000109E C3                              	RET
  2036 0000109F                                 L374:
  2037 0000109F B8 00000061                     	MOV	EAX,97
  2038 000010A4 EB F7                           	JMP	L372
  2039 000010A6                                 	GLOBAL	_revstr
  2040 000010A6                                 _revstr:
  2041 000010A6 55                              	PUSH	EBP
  2042 000010A7 89 E5                           	MOV	EBP,ESP
  2043 000010A9 56                              	PUSH	ESI
  2044 000010AA 53                              	PUSH	EBX
  2045 000010AB 8B 75 08                        	MOV	ESI,DWORD [8+EBP]
  2046 000010AE 89 F0                           	MOV	EAX,ESI
  2047 000010B0 89 F3                           	MOV	EBX,ESI
  2048 000010B2 03 45 0C                        	ADD	EAX,DWORD [12+EBP]
  2049 000010B5 85 F6                           	TEST	ESI,ESI
  2050 000010B7 8D 48 FF                        	LEA	ECX,DWORD [-1+EAX]
  2051 000010BA 74 12                           	JE	L376
  2052 000010BC 39 CE                           	CMP	ESI,ECX
  2053 000010BE 73 0E                           	JAE	L376
  2054 000010C0                                 L380:
  2055 000010C0 8A 13                           	MOV	DL,BYTE [EBX]
  2056 000010C2 8A 01                           	MOV	AL,BYTE [ECX]
  2057 000010C4 88 03                           	MOV	BYTE [EBX],AL
  2058 000010C6 88 11                           	MOV	BYTE [ECX],DL
  2059 000010C8 43                              	INC	EBX
  2060 000010C9 49                              	DEC	ECX
  2061 000010CA 39 CB                           	CMP	EBX,ECX
  2062 000010CC 72 F2                           	JB	L380
  2063 000010CE                                 L376:
  2064 000010CE 5B                              	POP	EBX
  2065 000010CF 89 F0                           	MOV	EAX,ESI
  2066 000010D1 5E                              	POP	ESI
  2067 000010D2 5D                              	POP	EBP
  2068 000010D3 C3                              	RET
  2069 000010D4                                 	GLOBAL	_constring
  2070 000010D4                                 _constring:
  2071 000010D4 55                              	PUSH	EBP
  2072 000010D5 31 C9                           	XOR	ECX,ECX
  2073 000010D7 89 E5                           	MOV	EBP,ESP
  2074 000010D9 57                              	PUSH	EDI
  2075 000010DA 56                              	PUSH	ESI
  2076 000010DB 8B 55 08                        	MOV	EDX,DWORD [8+EBP]
  2077 000010DE 53                              	PUSH	EBX
  2078 000010DF 8B 7D 0C                        	MOV	EDI,DWORD [12+EBP]
  2079 000010E2 80 3A 00                        	CMP	BYTE [EDX],0
  2080 000010E5 74 0D                           	JE	L394
  2081 000010E7                                 L387:
  2082 000010E7 8A 04 11                        	MOV	AL,BYTE [ECX+EDX*1]
  2083 000010EA 88 04 31                        	MOV	BYTE [ECX+ESI*1],AL
  2084 000010ED 41                              	INC	ECX
  2085 000010EE 80 3C 11 00                     	CMP	BYTE [ECX+EDX*1],0
  2086 000010F2 75 F3                           	JNE	L387
  2087 000010F4                                 L394:
  2088 000010F4 31 DB                           	XOR	EBX,EBX
  2089 000010F6 80 3F 00                        	CMP	BYTE [EDI],0
  2090 000010F9 74 10                           	JE	L396
  2091 000010FB 8D 14 0E                        	LEA	EDX,DWORD [ESI+ECX*1]
  2092 000010FE                                 L392:
  2093 000010FE 8A 04 3B                        	MOV	AL,BYTE [EBX+EDI*1]
  2094 00001101 43                              	INC	EBX
  2095 00001102 88 02                           	MOV	BYTE [EDX],AL
  2096 00001104 42                              	INC	EDX
  2097 00001105 80 3C 3B 00                     	CMP	BYTE [EBX+EDI*1],0
  2098 00001109 75 F3                           	JNE	L392
  2099 0000110B                                 L396:
  2100 0000110B 8D 04 0B                        	LEA	EAX,DWORD [EBX+ECX*1]
  2101 0000110E C6 04 30 00                     	MOV	BYTE [EAX+ESI*1],0
  2102 00001112 89 F0                           	MOV	EAX,ESI
  2103 00001114 5B                              	POP	EBX
  2104 00001115 5E                              	POP	ESI
  2105 00001116 5F                              	POP	EDI
  2106 00001117 5D                              	POP	EBP
  2107 00001118 C3                              	RET
  2108 00001119                                 	GLOBAL	_putstr
  2109 00001119                                 _putstr:
  2110 00001119 55                              	PUSH	EBP
  2111 0000111A 89 E5                           	MOV	EBP,ESP
  2112 0000111C 57                              	PUSH	EDI
  2113 0000111D 56                              	PUSH	ESI
  2114 0000111E 53                              	PUSH	EBX
  2115 0000111F 8B 75 0C                        	MOV	ESI,DWORD [12+EBP]
  2116 00001122 31 DB                           	XOR	EBX,EBX
  2117 00001124 8B 7D 08                        	MOV	EDI,DWORD [8+EBP]
  2118 00001127 39 F3                           	CMP	EBX,ESI
  2119 00001129 7D 1F                           	JGE	L406
  2120 0000112B                                 L404:
  2121 0000112B 83 3D [000000BC] 18             	CMP	DWORD [_y],24
  2122 00001132 74 1E                           	JE	L407
  2123 00001134                                 L402:
  2124 00001134 8A 04 3B                        	MOV	AL,BYTE [EBX+EDI*1]
  2125 00001137 3C 0D                           	CMP	AL,13
  2126 00001139 74 0A                           	JE	L400
  2127 0000113B 0F BE C0                        	MOVSX	EAX,AL
  2128 0000113E 50                              	PUSH	EAX
  2129 0000113F E8 00000369                     	CALL	_putchar
  2130 00001144 58                              	POP	EAX
  2131 00001145                                 L400:
  2132 00001145 43                              	INC	EBX
  2133 00001146 39 F3                           	CMP	EBX,ESI
  2134 00001148 7C E1                           	JL	L404
  2135 0000114A                                 L406:
  2136 0000114A 8D 65 F4                        	LEA	ESP,DWORD [-12+EBP]
  2137 0000114D 5B                              	POP	EBX
  2138 0000114E 5E                              	POP	ESI
  2139 0000114F 5F                              	POP	EDI
  2140 00001150 5D                              	POP	EBP
  2141 00001151 C3                              	RET
  2142 00001152                                 L407:
  2143 00001152 81 3D [000000B8] 0000009F       	CMP	DWORD [_x],159
  2144 0000115C 7E D6                           	JLE	L402
  2145 0000115E E8 000004ED                     	CALL	_screen_ne
  2146 00001163 EB CF                           	JMP	L402
  2147 00001165                                 	GLOBAL	_print
  2148 00001165                                 _print:
  2149 00001165 55                              	PUSH	EBP
  2150 00001166 89 E5                           	MOV	EBP,ESP
  2151 00001168 53                              	PUSH	EBX
  2152 00001169 8B 5D 08                        	MOV	EBX,DWORD [8+EBP]
  2153 0000116C 53                              	PUSH	EBX
  2154 0000116D E8 0000000E                     	CALL	_getlength
  2155 00001172 89 04 24                        	MOV	DWORD [ESP],EAX
  2156 00001175 53                              	PUSH	EBX
  2157 00001176 E8 FFFFFF9E                     	CALL	_putstr
  2158 0000117B 8B 5D FC                        	MOV	EBX,DWORD [-4+EBP]
  2159 0000117E C9                              	LEAVE
  2160 0000117F C3                              	RET
  2161 00001180                                 	GLOBAL	_getlength
  2162 00001180                                 _getlength:
  2163 00001180 55                              	PUSH	EBP
  2164 00001181 31 C0                           	XOR	EAX,EAX
  2165 00001183 89 E5                           	MOV	EBP,ESP
  2166 00001185 8B 55 08                        	MOV	EDX,DWORD [8+EBP]
  2167 00001188                                 L410:
  2168 00001188 80 3C 10 00                     	CMP	BYTE [EAX+EDX*1],0
  2169 0000118C 74 03                           	JE	L414
  2170 0000118E 40                              	INC	EAX
  2171 0000118F EB F7                           	JMP	L410
  2172 00001191                                 L414:
  2173 00001191 5D                              	POP	EBP
  2174 00001192 C3                              	RET
  2175                                          [SECTION .data]
  2176 000004E4                                 LC51:
  2177 000004E4 41 00                           	DB	"A",0x00
  2178                                          [SECTION .text]
  2179 00001193                                 	GLOBAL	_input_password
  2180 00001193                                 _input_password:
  2181 00001193 55                              	PUSH	EBP
  2182 00001194 89 E5                           	MOV	EBP,ESP
  2183 00001196 57                              	PUSH	EDI
  2184 00001197 56                              	PUSH	ESI
  2185 00001198 8B 3D [000000B8]                	MOV	EDI,DWORD [_x]
  2186 0000119E 53                              	PUSH	EBX
  2187 0000119F C6 06 00                        	MOV	BYTE [ESI],0
  2188 000011A2                                 L416:
  2189 000011A2                                 L437:
  2190 000011A2 83 3D [000000BC] 18             	CMP	DWORD [_y],24
  2191 000011A9 0F 84 0000013B                  	JE	L440
  2192 000011AF                                 L420:
  2193 000011AF E8 000002C1                     	CALL	_input_char_inSM
  2194 000011B4 89 C3                           	MOV	EBX,EAX
  2195 000011B6 83 F8 FF                        	CMP	EAX,-1
  2196 000011B9 74 E7                           	JE	L437
  2197 000011BB 83 3D [000000CC] 01             	CMP	DWORD [_caps_lock],1
  2198 000011C2 75 6E                           	JNE	L422
  2199 000011C4 80 B8 [00000000] 08             	CMP	BYTE [_keytable+EAX],8
  2200 000011CB 75 14                           	JNE	L423
  2201 000011CD 39 3D [000000B8]                	CMP	DWORD [_x],EDI
  2202 000011D3 74 CD                           	JE	L437
  2203 000011D5 56                              	PUSH	ESI
  2204 000011D6 E8 FFFFFFA5                     	CALL	_getlength
  2205 000011DB C6 44 30 FF 00                  	MOV	BYTE [-1+EAX+ESI*1],0
  2206 000011E0 59                              	POP	ECX
  2207 000011E1                                 L423:
  2208 000011E1 8A 83 [00000000]                	MOV	AL,BYTE [_keytable+EBX]
  2209 000011E7 3C 08                           	CMP	AL,8
  2210 000011E9 74 21                           	JE	L425
  2211 000011EB 3C 61                           	CMP	AL,97
  2212 000011ED 74 1D                           	JE	L425
  2213 000011EF 80 BB [00000054] 0A             	CMP	BYTE [_keytable1+EBX],10
  2214 000011F6 74 14                           	JE	L425
  2215 000011F8 68 [000004E4]                   	PUSH	LC51
  2216 000011FD A2 [000004E4]                   	MOV	BYTE [LC51],AL
  2217 00001202 56                              	PUSH	ESI
  2218 00001203 E8 0000024A                     	CALL	_cat
  2219 00001208 89 C6                           	MOV	ESI,EAX
  2220 0000120A 58                              	POP	EAX
  2221 0000120B 5A                              	POP	EDX
  2222 0000120C                                 L425:
  2223 0000120C 8A 83 [00000000]                	MOV	AL,BYTE [_keytable+EBX]
  2224 00001212 3C 61                           	CMP	AL,97
  2225 00001214 0F 84 000000C1                  	JE	L441
  2226 0000121A 3C 08                           	CMP	AL,8
  2227 0000121C 0F 84 000000B0                  	JE	L427
  2228 00001222 3C 0A                           	CMP	AL,10
  2229 00001224 0F 84 000000A8                  	JE	L427
  2230 0000122A 6A 2A                           	PUSH	42
  2231 0000122C                                 L438:
  2232 0000122C E8 0000027C                     	CALL	_putchar
  2233 00001231 58                              	POP	EAX
  2234 00001232                                 L422:
  2235 00001232 83 3D [000000CC] 00             	CMP	DWORD [_caps_lock],0
  2236 00001239 75 61                           	JNE	L429
  2237 0000123B 80 BB [00000054] 08             	CMP	BYTE [_keytable1+EBX],8
  2238 00001242 75 18                           	JNE	L430
  2239 00001244 39 3D [000000B8]                	CMP	DWORD [_x],EDI
  2240 0000124A 0F 84 FFFFFF52                  	JE	L437
  2241 00001250 56                              	PUSH	ESI
  2242 00001251 E8 FFFFFF2A                     	CALL	_getlength
  2243 00001256 C6 44 30 FF 00                  	MOV	BYTE [-1+EAX+ESI*1],0
  2244 0000125B 59                              	POP	ECX
  2245 0000125C                                 L430:
  2246 0000125C 8A 83 [00000054]                	MOV	AL,BYTE [_keytable1+EBX]
  2247 00001262 3C 08                           	CMP	AL,8
  2248 00001264 74 1C                           	JE	L432
  2249 00001266 3C 46                           	CMP	AL,70
  2250 00001268 74 18                           	JE	L432
  2251 0000126A 3C 0A                           	CMP	AL,10
  2252 0000126C 74 14                           	JE	L432
  2253 0000126E 68 [000004E4]                   	PUSH	LC51
  2254 00001273 A2 [000004E4]                   	MOV	BYTE [LC51],AL
  2255 00001278 56                              	PUSH	ESI
  2256 00001279 E8 000001D4                     	CALL	_cat
  2257 0000127E 89 C6                           	MOV	ESI,EAX
  2258 00001280 58                              	POP	EAX
  2259 00001281 5A                              	POP	EDX
  2260 00001282                                 L432:
  2261 00001282 8A 83 [00000054]                	MOV	AL,BYTE [_keytable1+EBX]
  2262 00001288 3C 46                           	CMP	AL,70
  2263 0000128A 74 37                           	JE	L442
  2264 0000128C 3C 08                           	CMP	AL,8
  2265 0000128E 74 2D                           	JE	L434
  2266 00001290 3C 0A                           	CMP	AL,10
  2267 00001292 74 29                           	JE	L434
  2268 00001294 6A 2A                           	PUSH	42
  2269 00001296                                 L439:
  2270 00001296 E8 00000212                     	CALL	_putchar
  2271 0000129B 58                              	POP	EAX
  2272 0000129C                                 L429:
  2273 0000129C 80 BB [00000054] 0A             	CMP	BYTE [_keytable1+EBX],10
  2274 000012A3 0F 85 FFFFFEF9                  	JNE	L437
  2275 000012A9 C7 05 [000000C8] 00000000       	MOV	DWORD [_times],0
  2276 000012B3 8D 65 F4                        	LEA	ESP,DWORD [-12+EBP]
  2277 000012B6 89 F0                           	MOV	EAX,ESI
  2278 000012B8 5B                              	POP	EBX
  2279 000012B9 5E                              	POP	ESI
  2280 000012BA 5F                              	POP	EDI
  2281 000012BB 5D                              	POP	EBP
  2282 000012BC C3                              	RET
  2283 000012BD                                 L434:
  2284 000012BD 0F BE C0                        	MOVSX	EAX,AL
  2285 000012C0 50                              	PUSH	EAX
  2286 000012C1 EB D3                           	JMP	L439
  2287 000012C3                                 L442:
  2288 000012C3 C7 05 [000000CC] 00000001       	MOV	DWORD [_caps_lock],1
  2289 000012CD E9 FFFFFED0                     	JMP	L437
  2290 000012D2                                 L427:
  2291 000012D2 0F BE C0                        	MOVSX	EAX,AL
  2292 000012D5 50                              	PUSH	EAX
  2293 000012D6 E9 FFFFFF51                     	JMP	L438
  2294 000012DB                                 L441:
  2295 000012DB C7 05 [000000CC] 00000000       	MOV	DWORD [_caps_lock],0
  2296 000012E5 E9 FFFFFEB8                     	JMP	L437
  2297 000012EA                                 L440:
  2298 000012EA 81 3D [000000B8] 0000009F       	CMP	DWORD [_x],159
  2299 000012F4 0F 8E FFFFFEB5                  	JLE	L420
  2300 000012FA E8 00000351                     	CALL	_screen_ne
  2301 000012FF E9 FFFFFEAB                     	JMP	L420
  2302 00001304                                 	GLOBAL	_input_str_SM
  2303 00001304                                 _input_str_SM:
  2304 00001304 55                              	PUSH	EBP
  2305 00001305 89 E5                           	MOV	EBP,ESP
  2306 00001307 57                              	PUSH	EDI
  2307 00001308 56                              	PUSH	ESI
  2308 00001309 8B 3D [000000B8]                	MOV	EDI,DWORD [_x]
  2309 0000130F 53                              	PUSH	EBX
  2310 00001310 C6 06 00                        	MOV	BYTE [ESI],0
  2311 00001313                                 L444:
  2312 00001313                                 L461:
  2313 00001313 83 3D [000000BC] 18             	CMP	DWORD [_y],24
  2314 0000131A 0F 84 00000118                  	JE	L462
  2315 00001320                                 L448:
  2316 00001320 E8 00000150                     	CALL	_input_char_inSM
  2317 00001325 89 C3                           	MOV	EBX,EAX
  2318 00001327 83 F8 FF                        	CMP	EAX,-1
  2319 0000132A 74 E7                           	JE	L461
  2320 0000132C 83 3D [000000CC] 01             	CMP	DWORD [_caps_lock],1
  2321 00001333 75 60                           	JNE	L450
  2322 00001335 80 B8 [00000000] 08             	CMP	BYTE [_keytable+EAX],8
  2323 0000133C 75 14                           	JNE	L451
  2324 0000133E 39 3D [000000B8]                	CMP	DWORD [_x],EDI
  2325 00001344 74 CD                           	JE	L461
  2326 00001346 56                              	PUSH	ESI
  2327 00001347 E8 FFFFFE34                     	CALL	_getlength
  2328 0000134C C6 44 30 FF 00                  	MOV	BYTE [-1+EAX+ESI*1],0
  2329 00001351 59                              	POP	ECX
  2330 00001352                                 L451:
  2331 00001352 8A 83 [00000000]                	MOV	AL,BYTE [_keytable+EBX]
  2332 00001358 3C 08                           	CMP	AL,8
  2333 0000135A 74 21                           	JE	L453
  2334 0000135C 3C 61                           	CMP	AL,97
  2335 0000135E 74 1D                           	JE	L453
  2336 00001360 80 BB [00000054] 0A             	CMP	BYTE [_keytable1+EBX],10
  2337 00001367 74 14                           	JE	L453
  2338 00001369 68 [000004E4]                   	PUSH	LC51
  2339 0000136E A2 [000004E4]                   	MOV	BYTE [LC51],AL
  2340 00001373 56                              	PUSH	ESI
  2341 00001374 E8 000000D9                     	CALL	_cat
  2342 00001379 89 C6                           	MOV	ESI,EAX
  2343 0000137B 58                              	POP	EAX
  2344 0000137C 5A                              	POP	EDX
  2345 0000137D                                 L453:
  2346 0000137D 8A 83 [00000000]                	MOV	AL,BYTE [_keytable+EBX]
  2347 00001383 3C 61                           	CMP	AL,97
  2348 00001385 0F 84 0000009E                  	JE	L463
  2349 0000138B 0F BE C0                        	MOVSX	EAX,AL
  2350 0000138E 50                              	PUSH	EAX
  2351 0000138F E8 00000119                     	CALL	_putchar
  2352 00001394 58                              	POP	EAX
  2353 00001395                                 L450:
  2354 00001395 83 3D [000000CC] 00             	CMP	DWORD [_caps_lock],0
  2355 0000139C 75 5B                           	JNE	L455
  2356 0000139E 80 BB [00000054] 08             	CMP	BYTE [_keytable1+EBX],8
  2357 000013A5 75 18                           	JNE	L456
  2358 000013A7 39 3D [000000B8]                	CMP	DWORD [_x],EDI
  2359 000013AD 0F 84 FFFFFF60                  	JE	L461
  2360 000013B3 56                              	PUSH	ESI
  2361 000013B4 E8 FFFFFDC7                     	CALL	_getlength
  2362 000013B9 C6 44 30 FF 00                  	MOV	BYTE [-1+EAX+ESI*1],0
  2363 000013BE 59                              	POP	ECX
  2364 000013BF                                 L456:
  2365 000013BF 8A 83 [00000054]                	MOV	AL,BYTE [_keytable1+EBX]
  2366 000013C5 3C 08                           	CMP	AL,8
  2367 000013C7 74 1C                           	JE	L458
  2368 000013C9 3C 46                           	CMP	AL,70
  2369 000013CB 74 18                           	JE	L458
  2370 000013CD 3C 0A                           	CMP	AL,10
  2371 000013CF 74 14                           	JE	L458
  2372 000013D1 68 [000004E4]                   	PUSH	LC51
  2373 000013D6 A2 [000004E4]                   	MOV	BYTE [LC51],AL
  2374 000013DB 56                              	PUSH	ESI
  2375 000013DC E8 00000071                     	CALL	_cat
  2376 000013E1 89 C6                           	MOV	ESI,EAX
  2377 000013E3 58                              	POP	EAX
  2378 000013E4 5A                              	POP	EDX
  2379 000013E5                                 L458:
  2380 000013E5 8A 83 [00000054]                	MOV	AL,BYTE [_keytable1+EBX]
  2381 000013EB 3C 46                           	CMP	AL,70
  2382 000013ED 74 2B                           	JE	L464
  2383 000013EF 0F BE C0                        	MOVSX	EAX,AL
  2384 000013F2 50                              	PUSH	EAX
  2385 000013F3 E8 000000B5                     	CALL	_putchar
  2386 000013F8 58                              	POP	EAX
  2387 000013F9                                 L455:
  2388 000013F9 80 BB [00000054] 0A             	CMP	BYTE [_keytable1+EBX],10
  2389 00001400 0F 85 FFFFFF0D                  	JNE	L461
  2390 00001406 C7 05 [000000C8] 00000000       	MOV	DWORD [_times],0
  2391 00001410 8D 65 F4                        	LEA	ESP,DWORD [-12+EBP]
  2392 00001413 89 F0                           	MOV	EAX,ESI
  2393 00001415 5B                              	POP	EBX
  2394 00001416 5E                              	POP	ESI
  2395 00001417 5F                              	POP	EDI
  2396 00001418 5D                              	POP	EBP
  2397 00001419 C3                              	RET
  2398 0000141A                                 L464:
  2399 0000141A C7 05 [000000CC] 00000001       	MOV	DWORD [_caps_lock],1
  2400 00001424 E9 FFFFFEEA                     	JMP	L461
  2401 00001429                                 L463:
  2402 00001429 C7 05 [000000CC] 00000000       	MOV	DWORD [_caps_lock],0
  2403 00001433 E9 FFFFFEDB                     	JMP	L461
  2404 00001438                                 L462:
  2405 00001438 81 3D [000000B8] 0000009F       	CMP	DWORD [_x],159
  2406 00001442 0F 8E FFFFFED8                  	JLE	L448
  2407 00001448 E8 00000203                     	CALL	_screen_ne
  2408 0000144D E9 FFFFFECE                     	JMP	L448
  2409 00001452                                 	GLOBAL	_cat
  2410 00001452                                 _cat:
  2411 00001452 55                              	PUSH	EBP
  2412 00001453 89 E5                           	MOV	EBP,ESP
  2413 00001455 8B 55 08                        	MOV	EDX,DWORD [8+EBP]
  2414 00001458 8B 4D 0C                        	MOV	ECX,DWORD [12+EBP]
  2415 0000145B                                 L466:
  2416 0000145B 8A 02                           	MOV	AL,BYTE [EDX]
  2417 0000145D 42                              	INC	EDX
  2418 0000145E 84 C0                           	TEST	AL,AL
  2419 00001460 75 F9                           	JNE	L466
  2420 00001462 4A                              	DEC	EDX
  2421 00001463                                 L469:
  2422 00001463 8A 01                           	MOV	AL,BYTE [ECX]
  2423 00001465 41                              	INC	ECX
  2424 00001466 88 02                           	MOV	BYTE [EDX],AL
  2425 00001468 42                              	INC	EDX
  2426 00001469 84 C0                           	TEST	AL,AL
  2427 0000146B 75 F6                           	JNE	L469
  2428 0000146D C6 02 00                        	MOV	BYTE [EDX],0
  2429 00001470 8B 45 08                        	MOV	EAX,DWORD [8+EBP]
  2430 00001473 5D                              	POP	EBP
  2431 00001474 C3                              	RET
  2432 00001475                                 	GLOBAL	_input_char_inSM
  2433 00001475                                 _input_char_inSM:
  2434 00001475 55                              	PUSH	EBP
  2435 00001476 89 E5                           	MOV	EBP,ESP
  2436 00001478 53                              	PUSH	EBX
  2437 00001479                                 L479:
  2438 00001479 68 [00000640]                   	PUSH	_keyfifo
  2439 0000147E E8 FFFFEF0F                     	CALL	_fifo8_status
  2440 00001483 5A                              	POP	EDX
  2441 00001484 85 C0                           	TEST	EAX,EAX
  2442 00001486 74 1E                           	JE	L480
  2443 00001488 68 [00000640]                   	PUSH	_keyfifo
  2444 0000148D E8 FFFFEEC5                     	CALL	_fifo8_get
  2445 00001492 89 C3                           	MOV	EBX,EAX
  2446 00001494 E8 [00000000]                   	CALL	_io_sti
  2447 00001499 58                              	POP	EAX
  2448 0000149A 83 FB 7F                        	CMP	EBX,127
  2449 0000149D 7F DA                           	JG	L479
  2450 0000149F 89 D8                           	MOV	EAX,EBX
  2451 000014A1 8B 5D FC                        	MOV	EBX,DWORD [-4+EBP]
  2452 000014A4 C9                              	LEAVE
  2453 000014A5 C3                              	RET
  2454 000014A6                                 L480:
  2455 000014A6 E8 [00000000]                   	CALL	_io_stihlt
  2456 000014AB EB CC                           	JMP	L479
  2457 000014AD                                 	GLOBAL	_putchar
  2458 000014AD                                 _putchar:
  2459 000014AD 55                              	PUSH	EBP
  2460 000014AE 89 E5                           	MOV	EBP,ESP
  2461 000014B0 56                              	PUSH	ESI
  2462 000014B1 53                              	PUSH	EBX
  2463 000014B2 8B 75 08                        	MOV	ESI,DWORD [8+EBP]
  2464 000014B5 89 F3                           	MOV	EBX,ESI
  2465 000014B7 81 3D [000000B8] 000000A0       	CMP	DWORD [_x],160
  2466 000014C1 0F 84 000000CC                  	JE	L491
  2467 000014C7                                 L482:
  2468 000014C7 80 FB 0A                        	CMP	BL,10
  2469 000014CA 0F 84 00000084                  	JE	L492
  2470 000014D0 84 DB                           	TEST	BL,BL
  2471 000014D2 74 3C                           	JE	L481
  2472 000014D4 80 FB 08                        	CMP	BL,8
  2473 000014D7 74 3E                           	JE	L493
  2474 000014D9 A1 [000000C0]                   	MOV	EAX,DWORD [_cons_x]
  2475 000014DE 40                              	INC	EAX
  2476 000014DF A3 [000000C0]                   	MOV	DWORD [_cons_x],EAX
  2477 000014E4 FF 35 [000000C4]                	PUSH	DWORD [_cons_y]
  2478 000014EA 50                              	PUSH	EAX
  2479 000014EB E8 00000146                     	CALL	_Move_Cursor
  2480 000014F0 89 F2                           	MOV	EDX,ESI
  2481 000014F2 A1 [000000BC]                   	MOV	EAX,DWORD [_y]
  2482 000014F7 69 C0 000000A0                  	IMUL	EAX,EAX,160
  2483 000014FD 03 05 [000000B8]                	ADD	EAX,DWORD [_x]
  2484 00001503 88 90 000B8000                  	MOV	BYTE [753664+EAX],DL
  2485 00001509 83 05 [000000B8] 02             	ADD	DWORD [_x],2
  2486 00001510                                 L481:
  2487 00001510 8D 65 F8                        	LEA	ESP,DWORD [-8+EBP]
  2488 00001513 5B                              	POP	EBX
  2489 00001514 5E                              	POP	ESI
  2490 00001515 5D                              	POP	EBP
  2491 00001516 C3                              	RET
  2492 00001517                                 L493:
  2493 00001517 8B 15 [000000B8]                	MOV	EDX,DWORD [_x]
  2494 0000151D 85 D2                           	TEST	EDX,EDX
  2495 0000151F 74 EF                           	JE	L481
  2496 00001521 A1 [000000BC]                   	MOV	EAX,DWORD [_y]
  2497 00001526 69 C0 000000A0                  	IMUL	EAX,EAX,160
  2498 0000152C C6 84 02 000B7FFE 20            	MOV	BYTE [753662+EDX+EAX*1],32
  2499 00001534 A1 [000000C0]                   	MOV	EAX,DWORD [_cons_x]
  2500 00001539 48                              	DEC	EAX
  2501 0000153A 83 2D [000000B8] 02             	SUB	DWORD [_x],2
  2502 00001541 A3 [000000C0]                   	MOV	DWORD [_cons_x],EAX
  2503 00001546 FF 35 [000000C4]                	PUSH	DWORD [_cons_y]
  2504 0000154C 50                              	PUSH	EAX
  2505 0000154D                                 L490:
  2506 0000154D E8 000000E4                     	CALL	_Move_Cursor
  2507 00001552 EB BC                           	JMP	L481
  2508 00001554                                 L492:
  2509 00001554 A1 [000000BC]                   	MOV	EAX,DWORD [_y]
  2510 00001559 83 F8 18                        	CMP	EAX,24
  2511 0000155C 74 2A                           	JE	L494
  2512 0000155E 40                              	INC	EAX
  2513 0000155F A3 [000000BC]                   	MOV	DWORD [_y],EAX
  2514 00001564 A1 [000000C4]                   	MOV	EAX,DWORD [_cons_y]
  2515 00001569 40                              	INC	EAX
  2516 0000156A A3 [000000C4]                   	MOV	DWORD [_cons_y],EAX
  2517 0000156F C7 05 [000000B8] 00000000       	MOV	DWORD [_x],0
  2518 00001579 C7 05 [000000C0] 00000000       	MOV	DWORD [_cons_x],0
  2519 00001583 50                              	PUSH	EAX
  2520 00001584 6A 00                           	PUSH	0
  2521 00001586 EB C5                           	JMP	L490
  2522 00001588                                 L494:
  2523 00001588 8D 65 F8                        	LEA	ESP,DWORD [-8+EBP]
  2524 0000158B 5B                              	POP	EBX
  2525 0000158C 5E                              	POP	ESI
  2526 0000158D 5D                              	POP	EBP
  2527 0000158E E9 000000BD                     	JMP	_screen_ne
  2528 00001593                                 L491:
  2529 00001593 A1 [000000C4]                   	MOV	EAX,DWORD [_cons_y]
  2530 00001598 FF 05 [000000BC]                	INC	DWORD [_y]
  2531 0000159E 40                              	INC	EAX
  2532 0000159F A3 [000000C4]                   	MOV	DWORD [_cons_y],EAX
  2533 000015A4 C7 05 [000000B8] 00000000       	MOV	DWORD [_x],0
  2534 000015AE C7 05 [000000C0] 00000000       	MOV	DWORD [_cons_x],0
  2535 000015B8 50                              	PUSH	EAX
  2536 000015B9 6A 00                           	PUSH	0
  2537 000015BB E8 00000076                     	CALL	_Move_Cursor
  2538 000015C0 59                              	POP	ECX
  2539 000015C1 58                              	POP	EAX
  2540 000015C2 E9 FFFFFF00                     	JMP	L482
  2541 000015C7                                 	GLOBAL	_clear
  2542 000015C7                                 _clear:
  2543 000015C7 55                              	PUSH	EBP
  2544 000015C8 31 C9                           	XOR	ECX,ECX
  2545 000015CA 89 E5                           	MOV	EBP,ESP
  2546 000015CC                                 L505:
  2547 000015CC 8D 81 000B8000                  	LEA	EAX,DWORD [753664+ECX]
  2548 000015D2 BA 00000018                     	MOV	EDX,24
  2549 000015D7                                 L504:
  2550 000015D7 C6 00 20                        	MOV	BYTE [EAX],32
  2551 000015DA 05 000000A0                     	ADD	EAX,160
  2552 000015DF 4A                              	DEC	EDX
  2553 000015E0 79 F5                           	JNS	L504
  2554 000015E2 83 C1 02                        	ADD	ECX,2
  2555 000015E5 81 F9 0000009F                  	CMP	ECX,159
  2556 000015EB 7E DF                           	JLE	L505
  2557 000015ED 6A 00                           	PUSH	0
  2558 000015EF 6A 00                           	PUSH	0
  2559 000015F1 C7 05 [000000B8] 00000000       	MOV	DWORD [_x],0
  2560 000015FB C7 05 [000000BC] 00000000       	MOV	DWORD [_y],0
  2561 00001605 C7 05 [000000C0] 00000000       	MOV	DWORD [_cons_x],0
  2562 0000160F C7 05 [000000C4] 00000000       	MOV	DWORD [_cons_y],0
  2563 00001619 E8 00000018                     	CALL	_Move_Cursor
  2564 0000161E C9                              	LEAVE
  2565 0000161F C3                              	RET
  2566 00001620                                 	GLOBAL	_p2cWaitForKbRead
  2567 00001620                                 _p2cWaitForKbRead:
  2568 00001620 55                              	PUSH	EBP
  2569 00001621 89 E5                           	MOV	EBP,ESP
  2570 00001623 6A 64                           	PUSH	100
  2571 00001625 E8 [00000000]                   	CALL	_io_in
  2572 0000162A 5A                              	POP	EDX
  2573 0000162B 83 F8 02                        	CMP	EAX,2
  2574 0000162E 0F 94 C0                        	SETE	AL
  2575 00001631 0F B6 C0                        	MOVZX	EAX,AL
  2576 00001634 C9                              	LEAVE
  2577 00001635 C3                              	RET
  2578 00001636                                 	GLOBAL	_Move_Cursor
  2579 00001636                                 _Move_Cursor:
  2580 00001636 55                              	PUSH	EBP
  2581 00001637 89 E5                           	MOV	EBP,ESP
  2582 00001639 0F BF 45 0C                     	MOVSX	EAX,WORD [12+EBP]
  2583 0000163D 6B C0 50                        	IMUL	EAX,EAX,80
  2584 00001640 0F BF 55 08                     	MOVSX	EDX,WORD [8+EBP]
  2585 00001644 01 D0                           	ADD	EAX,EDX
  2586 00001646 98                              	CWDE
  2587 00001647 89 45 08                        	MOV	DWORD [8+EBP],EAX
  2588 0000164A 5D                              	POP	EBP
  2589 0000164B E9 [00000000]                   	JMP	_ASM_call
  2590 00001650                                 	GLOBAL	_screen_ne
  2591 00001650                                 _screen_ne:
  2592 00001650 55                              	PUSH	EBP
  2593 00001651 89 E5                           	MOV	EBP,ESP
  2594 00001653 57                              	PUSH	EDI
  2595 00001654 56                              	PUSH	ESI
  2596 00001655 31 F6                           	XOR	ESI,ESI
  2597 00001657 53                              	PUSH	EBX
  2598 00001658                                 L519:
  2599 00001658 C6 86 000B8000 00               	MOV	BYTE [753664+ESI],0
  2600 0000165F 83 C6 02                        	ADD	ESI,2
  2601 00001662 81 FE 0000009F                  	CMP	ESI,159
  2602 00001668 7E EE                           	JLE	L519
  2603 0000166A 31 F6                           	XOR	ESI,ESI
  2604 0000166C 31 FF                           	XOR	EDI,EDI
  2605 0000166E                                 L529:
  2606 0000166E 31 DB                           	XOR	EBX,EBX
  2607 00001670                                 L528:
  2608 00001670 8D 04 3B                        	LEA	EAX,DWORD [EBX+EDI*1]
  2609 00001673 0F BE 84 00 000B8000            	MOVSX	EAX,BYTE [753664+EAX+EAX*1]
  2610 0000167B 50                              	PUSH	EAX
  2611 0000167C 8D 46 FF                        	LEA	EAX,DWORD [-1+ESI]
  2612 0000167F 50                              	PUSH	EAX
  2613 00001680 53                              	PUSH	EBX
  2614 00001681 43                              	INC	EBX
  2615 00001682 E8 00000056                     	CALL	_outputchar_b800
  2616 00001687 83 C4 0C                        	ADD	ESP,12
  2617 0000168A 83 FB 4F                        	CMP	EBX,79
  2618 0000168D 7E E1                           	JLE	L528
  2619 0000168F 46                              	INC	ESI
  2620 00001690 83 C7 50                        	ADD	EDI,80
  2621 00001693 83 FE 18                        	CMP	ESI,24
  2622 00001696 7E D6                           	JLE	L529
  2623 00001698 31 DB                           	XOR	EBX,EBX
  2624 0000169A                                 L534:
  2625 0000169A C6 83 000B8F00 00               	MOV	BYTE [757504+EBX],0
  2626 000016A1 83 C3 02                        	ADD	EBX,2
  2627 000016A4 81 FB 0000009F                  	CMP	EBX,159
  2628 000016AA 7E EE                           	JLE	L534
  2629 000016AC 0F BF 05 [000000C4]             	MOVSX	EAX,WORD [_cons_y]
  2630 000016B3 C7 05 [000000C0] 00000000       	MOV	DWORD [_cons_x],0
  2631 000016BD 50                              	PUSH	EAX
  2632 000016BE 0F BF 05 [000000C0]             	MOVSX	EAX,WORD [_cons_x]
  2633 000016C5 50                              	PUSH	EAX
  2634 000016C6 C7 05 [000000B8] 00000000       	MOV	DWORD [_x],0
  2635 000016D0 E8 FFFFFF61                     	CALL	_Move_Cursor
  2636 000016D5 8D 65 F4                        	LEA	ESP,DWORD [-12+EBP]
  2637 000016D8 5B                              	POP	EBX
  2638 000016D9 5E                              	POP	ESI
  2639 000016DA 5F                              	POP	EDI
  2640 000016DB 5D                              	POP	EBP
  2641 000016DC C3                              	RET
  2642 000016DD                                 	GLOBAL	_outputchar_b800
  2643 000016DD                                 _outputchar_b800:
  2644 000016DD 55                              	PUSH	EBP
  2645 000016DE 89 E5                           	MOV	EBP,ESP
  2646 000016E0 8B 4D 0C                        	MOV	ECX,DWORD [12+EBP]
  2647 000016E3 8B 55 08                        	MOV	EDX,DWORD [8+EBP]
  2648 000016E6 69 C9 000000A0                  	IMUL	ECX,ECX,160
  2649 000016EC 8B 45 10                        	MOV	EAX,DWORD [16+EBP]
  2650 000016EF 88 84 51 000B8000               	MOV	BYTE [753664+ECX+EDX*2],AL
  2651 000016F6 5D                              	POP	EBP
  2652 000016F7 C3                              	RET
  2653                                          [SECTION .data]
  2654 000004E6                                 LC58:
  2655 000004E6 00 00                           	DB	0x00,0x00
  2656                                          [SECTION .text]
  2657 000016F8                                 	GLOBAL	_sleep
  2658 000016F8                                 _sleep:
  2659 000016F8 55                              	PUSH	EBP
  2660 000016F9 89 E5                           	MOV	EBP,ESP
  2661 000016FB 53                              	PUSH	EBX
  2662 000016FC 8B 5D 08                        	MOV	EBX,DWORD [8+EBP]
  2663 000016FF E8 [00000000]                   	CALL	_init_pit
  2664 00001704                                 L549:
  2665 00001704 68 [000004E6]                   	PUSH	LC58
  2666 00001709 E8 FFFFFA57                     	CALL	_print
  2667 0000170E 59                              	POP	ECX
  2668 0000170F 6B C3 64                        	IMUL	EAX,EBX,100
  2669 00001712 39 05 [00000000]                	CMP	DWORD [_timerctl],EAX
  2670 00001718 75 EA                           	JNE	L549
  2671 0000171A C7 05 [000000C8] 00000001       	MOV	DWORD [_times],1
  2672 00001724 8B 5D FC                        	MOV	EBX,DWORD [-4+EBP]
  2673 00001727 C9                              	LEAVE
  2674 00001728 C3                              	RET
  2675 00001729                                 	GLOBAL	_sleep_m
  2676 00001729                                 _sleep_m:
  2677 00001729 55                              	PUSH	EBP
  2678 0000172A 89 E5                           	MOV	EBP,ESP
  2679 0000172C 53                              	PUSH	EBX
  2680 0000172D 8B 5D 08                        	MOV	EBX,DWORD [8+EBP]
  2681 00001730 E8 [00000000]                   	CALL	_init_pit
  2682 00001735                                 L555:
  2683 00001735 68 [000004E6]                   	PUSH	LC58
  2684 0000173A E8 FFFFFA26                     	CALL	_print
  2685 0000173F 39 1D [00000000]                	CMP	DWORD [_timerctl],EBX
  2686 00001745 58                              	POP	EAX
  2687 00001746 75 ED                           	JNE	L555
  2688 00001748 C7 45 08 00000000               	MOV	DWORD [8+EBP],0
  2689 0000174F 8B 5D FC                        	MOV	EBX,DWORD [-4+EBP]
  2690 00001752 C9                              	LEAVE
  2691 00001753 E9 FFFFFD55                     	JMP	_putchar
  2692 00001758                                 	GLOBAL	_f
  2693 00001758                                 _f:
  2694 00001758 55                              	PUSH	EBP
  2695 00001759 89 E5                           	MOV	EBP,ESP
  2696 0000175B 57                              	PUSH	EDI
  2697 0000175C 56                              	PUSH	ESI
  2698 0000175D 53                              	PUSH	EBX
  2699 0000175E 83 EC 10                        	SUB	ESP,16
  2700 00001761 8B 4D 08                        	MOV	ECX,DWORD [8+EBP]
  2701 00001764 8B 5D 0C                        	MOV	EBX,DWORD [12+EBP]
  2702 00001767 C7 45 E4 00000000               	MOV	DWORD [-28+EBP],0
  2703 0000176E 85 C9                           	TEST	ECX,ECX
  2704 00001770 75 03                           	JNE	L557
  2705 00001772 C6 03 30                        	MOV	BYTE [EBX],48
  2706 00001775                                 L557:
  2707 00001775 85 C9                           	TEST	ECX,ECX
  2708 00001777 78 79                           	JS	L576
  2709 00001779                                 L558:
  2710 00001779 31 F6                           	XOR	ESI,ESI
  2711 0000177B 85 C9                           	TEST	ECX,ECX
  2712 0000177D 74 2A                           	JE	L572
  2713 0000177F                                 L565:
  2714 0000177F 89 C8                           	MOV	EAX,ECX
  2715 00001781 BF 00000010                     	MOV	EDI,16
  2716 00001786 99                              	CDQ
  2717 00001787 F7 FF                           	IDIV	EDI
  2718 00001789 89 55 E8                        	MOV	DWORD [-24+EBP],EDX
  2719 0000178C 89 45 F0                        	MOV	DWORD [-16+EBP],EAX
  2720 0000178F 89 C1                           	MOV	ECX,EAX
  2721 00001791 83 EA 0A                        	SUB	EDX,10
  2722 00001794 78 54                           	JS	L577
  2723 00001796 8A 45 E8                        	MOV	AL,BYTE [-24+EBP]
  2724 00001799 83 C0 37                        	ADD	EAX,55
  2725 0000179C                                 L575:
  2726 0000179C 88 04 1E                        	MOV	BYTE [ESI+EBX*1],AL
  2727 0000179F 46                              	INC	ESI
  2728 000017A0 FF 45 E4                        	INC	DWORD [-28+EBP]
  2729 000017A3 83 7D F0 00                     	CMP	DWORD [-16+EBP],0
  2730 000017A7 75 D6                           	JNE	L565
  2731 000017A9                                 L572:
  2732 000017A9 8B 45 E4                        	MOV	EAX,DWORD [-28+EBP]
  2733 000017AC B9 00000002                     	MOV	ECX,2
  2734 000017B1 99                              	CDQ
  2735 000017B2 F7 F9                           	IDIV	ECX
  2736 000017B4 31 F6                           	XOR	ESI,ESI
  2737 000017B6 89 45 EC                        	MOV	DWORD [-20+EBP],EAX
  2738 000017B9 39 C6                           	CMP	ESI,EAX
  2739 000017BB 7D 25                           	JGE	L574
  2740 000017BD 8B 4D E4                        	MOV	ECX,DWORD [-28+EBP]
  2741 000017C0 01 D9                           	ADD	ECX,EBX
  2742 000017C2                                 L570:
  2743 000017C2 8A 14 1E                        	MOV	DL,BYTE [ESI+EBX*1]
  2744 000017C5 8A 41 FF                        	MOV	AL,BYTE [-1+ECX]
  2745 000017C8 88 04 1E                        	MOV	BYTE [ESI+EBX*1],AL
  2746 000017CB BF 00000002                     	MOV	EDI,2
  2747 000017D0 88 51 FF                        	MOV	BYTE [-1+ECX],DL
  2748 000017D3 46                              	INC	ESI
  2749 000017D4 8B 45 E4                        	MOV	EAX,DWORD [-28+EBP]
  2750 000017D7 49                              	DEC	ECX
  2751 000017D8 99                              	CDQ
  2752 000017D9 F7 FF                           	IDIV	EDI
  2753 000017DB 89 45 EC                        	MOV	DWORD [-20+EBP],EAX
  2754 000017DE 39 C6                           	CMP	ESI,EAX
  2755 000017E0 7C E0                           	JL	L570
  2756 000017E2                                 L574:
  2757 000017E2 83 C4 10                        	ADD	ESP,16
  2758 000017E5 5B                              	POP	EBX
  2759 000017E6 5E                              	POP	ESI
  2760 000017E7 5F                              	POP	EDI
  2761 000017E8 5D                              	POP	EBP
  2762 000017E9 C3                              	RET
  2763 000017EA                                 L577:
  2764 000017EA 8A 45 E8                        	MOV	AL,BYTE [-24+EBP]
  2765 000017ED 83 C0 30                        	ADD	EAX,48
  2766 000017F0 EB AA                           	JMP	L575
  2767 000017F2                                 L576:
  2768 000017F2 C6 03 2D                        	MOV	BYTE [EBX],45
  2769 000017F5 43                              	INC	EBX
  2770 000017F6 F7 D9                           	NEG	ECX
  2771 000017F8 E9 FFFFFF7C                     	JMP	L558
  2772 000017FD                                 	GLOBAL	_printchar
  2773 000017FD                                 _printchar:
  2774 000017FD 55                              	PUSH	EBP
  2775 000017FE 89 E5                           	MOV	EBP,ESP
  2776 00001800 50                              	PUSH	EAX
  2777 00001801 66 0F B6 45 08                  	MOVZX	AX,BYTE [8+EBP]
  2778 00001806 66 89 45 FE                     	MOV	WORD [-2+EBP],AX
  2779 0000180A 8D 45 FE                        	LEA	EAX,DWORD [-2+EBP]
  2780 0000180D 50                              	PUSH	EAX
  2781 0000180E E8 FFFFF952                     	CALL	_print
  2782 00001813 C9                              	LEAVE
  2783 00001814 C3                              	RET
  2784                                          [SECTION .data]
  2785 000004E8                                 LC59:
  2786 000004E8 25 78 00                        	DB	"%x",0x00
  2787                                          [SECTION .text]
  2788 00001815                                 	GLOBAL	_print_32bit_hex
  2789 00001815                                 _print_32bit_hex:
  2790 00001815 55                              	PUSH	EBP
  2791 00001816 89 E5                           	MOV	EBP,ESP
  2792 00001818 53                              	PUSH	EBX
  2793 00001819 83 EC 20                        	SUB	ESP,32
  2794 0000181C 31 DB                           	XOR	EBX,EBX
  2795 0000181E FF 75 08                        	PUSH	DWORD [8+EBP]
  2796 00001821 68 [000004E8]                   	PUSH	LC59
  2797 00001826 8D 45 DC                        	LEA	EAX,DWORD [-36+EBP]
  2798 00001829 50                              	PUSH	EAX
  2799 0000182A E8 [00000000]                   	CALL	_sprintf
  2800 0000182F 83 C4 0C                        	ADD	ESP,12
  2801 00001832                                 L580:
  2802 00001832 8D 45 DC                        	LEA	EAX,DWORD [-36+EBP]
  2803 00001835 50                              	PUSH	EAX
  2804 00001836 E8 FFFFF945                     	CALL	_getlength
  2805 0000183B BA 00000008                     	MOV	EDX,8
  2806 00001840 29 C2                           	SUB	EDX,EAX
  2807 00001842 58                              	POP	EAX
  2808 00001843 39 D3                           	CMP	EBX,EDX
  2809 00001845 7D 0E                           	JGE	L590
  2810 00001847 68 [00000331]                   	PUSH	LC36
  2811 0000184C 43                              	INC	EBX
  2812 0000184D E8 FFFFF913                     	CALL	_print
  2813 00001852 58                              	POP	EAX
  2814 00001853 EB DD                           	JMP	L580
  2815 00001855                                 L590:
  2816 00001855 31 DB                           	XOR	EBX,EBX
  2817 00001857                                 L585:
  2818 00001857 8D 45 DC                        	LEA	EAX,DWORD [-36+EBP]
  2819 0000185A 50                              	PUSH	EAX
  2820 0000185B E8 FFFFF920                     	CALL	_getlength
  2821 00001860 5A                              	POP	EDX
  2822 00001861 39 C3                           	CMP	EBX,EAX
  2823 00001863 7D 0F                           	JGE	L591
  2824 00001865 0F BE 44 1D DC                  	MOVSX	EAX,BYTE [-36+EBP+EBX*1]
  2825 0000186A 50                              	PUSH	EAX
  2826 0000186B 43                              	INC	EBX
  2827 0000186C E8 FFFFFF8C                     	CALL	_printchar
  2828 00001871 59                              	POP	ECX
  2829 00001872 EB E3                           	JMP	L585
  2830 00001874                                 L591:
  2831 00001874 8B 5D FC                        	MOV	EBX,DWORD [-4+EBP]
  2832 00001877 C9                              	LEAVE
  2833 00001878 C3                              	RET
  2834                                          [SECTION .data]
  2835 000004EB                                 LC60:
  2836 000004EB 52 45 53 3A 0A 00               	DB	"RES:",0x0A,0x00
  2837 000004F1                                 LC61:
  2838 000004F1 45 41 58 3D 00                  	DB	"EAX=",0x00
  2839 000004F6                                 LC62:
  2840 000004F6 0A 45 43 58 3D 00               	DB	0x0A,"ECX=",0x00
  2841 000004FC                                 LC63:
  2842 000004FC 0A 45 44 58 3D 00               	DB	0x0A,"EDX=",0x00
  2843 00000502                                 LC64:
  2844 00000502 0A 45 53 49 3D 00               	DB	0x0A,"ESI=",0x00
  2845 00000508                                 LC65:
  2846 00000508 0A 45 44 49 3D 00               	DB	0x0A,"EDI=",0x00
  2847 0000050E                                 LC66:
  2848 0000050E 0A 45 42 50 3D 00               	DB	0x0A,"EBP=",0x00
  2849 00000514                                 LC67:
  2850 00000514 0A 45 49 50 3D 00               	DB	0x0A,"EIP=",0x00
  2851 0000051A                                 LC68:
  2852 0000051A 0A 45 53 50 3D 00               	DB	0x0A,"ESP=",0x00
  2853 00000520                                 LC69:
  2854 00000520 0A 43 53 3D 00                  	DB	0x0A,"CS=",0x00
  2855                                          [SECTION .text]
  2856 00001879                                 	GLOBAL	_view_res
  2857 00001879                                 _view_res:
  2858 00001879 55                              	PUSH	EBP
  2859 0000187A 89 E5                           	MOV	EBP,ESP
  2860 0000187C 68 [000004EB]                   	PUSH	LC60
  2861 00001881 E8 FFFFF8DF                     	CALL	_print
  2862 00001886 68 [000004F1]                   	PUSH	LC61
  2863 0000188B E8 FFFFF8D5                     	CALL	_print
  2864 00001890 E8 [00000000]                   	CALL	_get_eax
  2865 00001895 50                              	PUSH	EAX
  2866 00001896 E8 FFFFFF7A                     	CALL	_print_32bit_hex
  2867 0000189B 68 [000004F6]                   	PUSH	LC62
  2868 000018A0 E8 FFFFF8C0                     	CALL	_print
  2869 000018A5 E8 [00000000]                   	CALL	_get_ecx
  2870 000018AA 50                              	PUSH	EAX
  2871 000018AB E8 FFFFFF65                     	CALL	_print_32bit_hex
  2872 000018B0 68 [000004FC]                   	PUSH	LC63
  2873 000018B5 E8 FFFFF8AB                     	CALL	_print
  2874 000018BA E8 [00000000]                   	CALL	_get_edx
  2875 000018BF 50                              	PUSH	EAX
  2876 000018C0 E8 FFFFFF50                     	CALL	_print_32bit_hex
  2877 000018C5 68 [00000502]                   	PUSH	LC64
  2878 000018CA E8 FFFFF896                     	CALL	_print
  2879 000018CF 83 C4 20                        	ADD	ESP,32
  2880 000018D2 E8 [00000000]                   	CALL	_get_esi
  2881 000018D7 50                              	PUSH	EAX
  2882 000018D8 E8 FFFFFF38                     	CALL	_print_32bit_hex
  2883 000018DD 68 [00000508]                   	PUSH	LC65
  2884 000018E2 E8 FFFFF87E                     	CALL	_print
  2885 000018E7 E8 [00000000]                   	CALL	_get_edi
  2886 000018EC 50                              	PUSH	EAX
  2887 000018ED E8 FFFFFF23                     	CALL	_print_32bit_hex
  2888 000018F2 68 [0000050E]                   	PUSH	LC66
  2889 000018F7 E8 FFFFF869                     	CALL	_print
  2890 000018FC E8 [00000000]                   	CALL	_get_ebp
  2891 00001901 50                              	PUSH	EAX
  2892 00001902 E8 FFFFFF0E                     	CALL	_print_32bit_hex
  2893 00001907 68 [00000514]                   	PUSH	LC67
  2894 0000190C E8 FFFFF854                     	CALL	_print
  2895 00001911 E8 [00000000]                   	CALL	_get_eip
  2896 00001916 50                              	PUSH	EAX
  2897 00001917 E8 FFFFFEF9                     	CALL	_print_32bit_hex
  2898 0000191C 68 [0000051A]                   	PUSH	LC68
  2899 00001921 E8 FFFFF83F                     	CALL	_print
  2900 00001926 83 C4 20                        	ADD	ESP,32
  2901 00001929 E8 [00000000]                   	CALL	_get_esp
  2902 0000192E 50                              	PUSH	EAX
  2903 0000192F E8 FFFFFEE1                     	CALL	_print_32bit_hex
  2904 00001934 68 [00000520]                   	PUSH	LC69
  2905 00001939 E8 FFFFF827                     	CALL	_print
  2906 0000193E E8 [00000000]                   	CALL	_get_cs
  2907 00001943 98                              	CWDE
  2908 00001944 50                              	PUSH	EAX
  2909 00001945 E8 FFFFFECB                     	CALL	_print_32bit_hex
  2910 0000194A 68 [000002EF]                   	PUSH	LC21
  2911 0000194F E8 FFFFF811                     	CALL	_print
  2912 00001954 C9                              	LEAVE
  2913 00001955 C3                              	RET
  2914                                          [SECTION .data]
  2915 00000525                                 LC70:
  2916 00000525 4C 6F 61 64 69 6E 67 20 2E 20   	DB	"Loading . . .",0x00
       0000052F 2E 20 2E 00 
  2917 00000533                                 LC71:
  2918 00000533 2F 00                           	DB	"/",0x00
  2919 00000535                                 LC72:
  2920 00000535 20 00                           	DB	" ",0x00
  2921 00000537                                 LC73:
  2922 00000537 3A 00                           	DB	":",0x00
  2923 00000539                                 LC74:
  2924 00000539 0A 69 74 27 73 20 72 75 6E 20   	DB	0x0A,"it's run in 32 bits mode",0x0A,"System.test.func:",0x0A,"output:hello, world",0x0A,"INT---",0x00
       00000543 69 6E 20 33 32 20 62 69 74 73 
       0000054D 20 6D 6F 64 65 0A 53 79 73 74 
       00000557 65 6D 2E 74 65 73 74 2E 66 75 
       00000561 6E 63 3A 0A 6F 75 74 70 75 74 
       0000056B 3A 68 65 6C 6C 6F 2C 20 77 6F 
       00000575 72 6C 64 0A 49 4E 54 2D 2D 2D 
       0000057F 00 
  2925 00000580                                 LC75:
  2926 00000580 4F 4B 21 0A 00                  	DB	"OK!",0x0A,0x00
  2927 00000585                                 LC76:
  2928 00000585 52 41 4E 44 4E 55 4D 28 31 2C   	DB	"RANDNUM(1,100)-----",0x00
       0000058F 31 30 30 29 2D 2D 2D 2D 2D 00 
  2929 00000599                                 LC77:
  2930 00000599 74 65 73 74 20 73 77 69 74 63   	DB	"test switch color--green",0x0A,0x00
       000005A3 68 20 63 6F 6C 6F 72 2D 2D 67 
       000005AD 72 65 65 6E 0A 00 
  2931 000005B3                                 LC78:
  2932 000005B3 28 44 6F 67 50 6F 77 65 72 20   	DB	"(DogPower Kernel 32bits v0.0.0.100 build 097)",0x0A,0x00
       000005BD 4B 65 72 6E 65 6C 20 33 32 62 
       000005C7 69 74 73 20 76 30 2E 30 2E 30 
       000005D1 2E 31 30 30 20 62 75 69 6C 64 
       000005DB 20 30 39 37 29 0A 00 
  2933                                          [SECTION .text]
  2934 00001956                                 	GLOBAL	_system_init
  2935 00001956                                 _system_init:
  2936 00001956 55                              	PUSH	EBP
  2937 00001957 89 E5                           	MOV	EBP,ESP
  2938 00001959 56                              	PUSH	ESI
  2939 0000195A 53                              	PUSH	EBX
  2940 0000195B E8 FFFFFC67                     	CALL	_clear
  2941 00001960 6A 2D                           	PUSH	45
  2942 00001962 6A 03                           	PUSH	3
  2943 00001964 68 [00000525]                   	PUSH	LC70
  2944 00001969 E8 00000522                     	CALL	_Print_Flashing_text
  2945 0000196E E8 FFFFEB3E                     	CALL	_get_year
  2946 00001973 50                              	PUSH	EAX
  2947 00001974 E8 FFFFF666                     	CALL	_itoa
  2948 00001979 89 04 24                        	MOV	DWORD [ESP],EAX
  2949 0000197C E8 FFFFF7E4                     	CALL	_print
  2950 00001981 68 [00000533]                   	PUSH	LC71
  2951 00001986 E8 FFFFF7DA                     	CALL	_print
  2952 0000198B E8 FFFFEAFB                     	CALL	_get_mon_hex
  2953 00001990 50                              	PUSH	EAX
  2954 00001991 E8 FFFFF649                     	CALL	_itoa
  2955 00001996 89 04 24                        	MOV	DWORD [ESP],EAX
  2956 00001999 E8 FFFFF7C7                     	CALL	_print
  2957 0000199E 68 [00000533]                   	PUSH	LC71
  2958 000019A3 E8 FFFFF7BD                     	CALL	_print
  2959 000019A8 E8 FFFFEA92                     	CALL	_get_day_of_month
  2960 000019AD 50                              	PUSH	EAX
  2961 000019AE E8 FFFFF62C                     	CALL	_itoa
  2962 000019B3 89 04 24                        	MOV	DWORD [ESP],EAX
  2963 000019B6 E8 FFFFF7AA                     	CALL	_print
  2964 000019BB 83 C4 20                        	ADD	ESP,32
  2965 000019BE 68 [00000533]                   	PUSH	LC71
  2966 000019C3 E8 FFFFF79D                     	CALL	_print
  2967 000019C8 E8 00000308                     	CALL	_get_day_eng
  2968 000019CD 68 [00000535]                   	PUSH	LC72
  2969 000019D2 E8 FFFFF78E                     	CALL	_print
  2970 000019D7 E8 FFFFE9F1                     	CALL	_get_hour_hex
  2971 000019DC 50                              	PUSH	EAX
  2972 000019DD E8 FFFFF5FD                     	CALL	_itoa
  2973 000019E2 89 04 24                        	MOV	DWORD [ESP],EAX
  2974 000019E5 E8 FFFFF77B                     	CALL	_print
  2975 000019EA 68 [00000537]                   	PUSH	LC73
  2976 000019EF E8 FFFFF771                     	CALL	_print
  2977 000019F4 E8 FFFFE9FA                     	CALL	_get_min_hex
  2978 000019F9 50                              	PUSH	EAX
  2979 000019FA E8 FFFFF5E0                     	CALL	_itoa
  2980 000019FF 89 04 24                        	MOV	DWORD [ESP],EAX
  2981 00001A02 E8 FFFFF75E                     	CALL	_print
  2982 00001A07 68 [00000537]                   	PUSH	LC73
  2983 00001A0C E8 FFFFF754                     	CALL	_print
  2984 00001A11 E8 FFFFEA03                     	CALL	_get_sec_hex
  2985 00001A16 50                              	PUSH	EAX
  2986 00001A17 E8 FFFFF5C3                     	CALL	_itoa
  2987 00001A1C 89 04 24                        	MOV	DWORD [ESP],EAX
  2988 00001A1F E8 FFFFF741                     	CALL	_print
  2989 00001A24 68 [000002EF]                   	PUSH	LC21
  2990 00001A29 E8 FFFFF737                     	CALL	_print
  2991 00001A2E 83 C4 20                        	ADD	ESP,32
  2992 00001A31 68 [000004EB]                   	PUSH	LC60
  2993 00001A36 E8 FFFFF72A                     	CALL	_print
  2994 00001A3B 68 [000004F1]                   	PUSH	LC61
  2995 00001A40 E8 FFFFF720                     	CALL	_print
  2996 00001A45 E8 [00000000]                   	CALL	_get_eax
  2997 00001A4A 50                              	PUSH	EAX
  2998 00001A4B E8 FFFFFDC5                     	CALL	_print_32bit_hex
  2999 00001A50 68 [000004F6]                   	PUSH	LC62
  3000 00001A55 E8 FFFFF70B                     	CALL	_print
  3001 00001A5A E8 [00000000]                   	CALL	_get_ecx
  3002 00001A5F 50                              	PUSH	EAX
  3003 00001A60 E8 FFFFFDB0                     	CALL	_print_32bit_hex
  3004 00001A65 68 [000004FC]                   	PUSH	LC63
  3005 00001A6A E8 FFFFF6F6                     	CALL	_print
  3006 00001A6F E8 [00000000]                   	CALL	_get_edx
  3007 00001A74 50                              	PUSH	EAX
  3008 00001A75 E8 FFFFFD9B                     	CALL	_print_32bit_hex
  3009 00001A7A 68 [00000502]                   	PUSH	LC64
  3010 00001A7F E8 FFFFF6E1                     	CALL	_print
  3011 00001A84 83 C4 20                        	ADD	ESP,32
  3012 00001A87 E8 [00000000]                   	CALL	_get_esi
  3013 00001A8C 50                              	PUSH	EAX
  3014 00001A8D E8 FFFFFD83                     	CALL	_print_32bit_hex
  3015 00001A92 68 [00000508]                   	PUSH	LC65
  3016 00001A97 E8 FFFFF6C9                     	CALL	_print
  3017 00001A9C E8 [00000000]                   	CALL	_get_edi
  3018 00001AA1 50                              	PUSH	EAX
  3019 00001AA2 E8 FFFFFD6E                     	CALL	_print_32bit_hex
  3020 00001AA7 68 [0000050E]                   	PUSH	LC66
  3021 00001AAC E8 FFFFF6B4                     	CALL	_print
  3022 00001AB1 E8 [00000000]                   	CALL	_get_ebp
  3023 00001AB6 50                              	PUSH	EAX
  3024 00001AB7 E8 FFFFFD59                     	CALL	_print_32bit_hex
  3025 00001ABC 68 [00000514]                   	PUSH	LC67
  3026 00001AC1 E8 FFFFF69F                     	CALL	_print
  3027 00001AC6 E8 [00000000]                   	CALL	_get_eip
  3028 00001ACB 50                              	PUSH	EAX
  3029 00001ACC E8 FFFFFD44                     	CALL	_print_32bit_hex
  3030 00001AD1 68 [0000051A]                   	PUSH	LC68
  3031 00001AD6 E8 FFFFF68A                     	CALL	_print
  3032 00001ADB 83 C4 20                        	ADD	ESP,32
  3033 00001ADE E8 [00000000]                   	CALL	_get_esp
  3034 00001AE3 50                              	PUSH	EAX
  3035 00001AE4 E8 FFFFFD2C                     	CALL	_print_32bit_hex
  3036 00001AE9 68 [00000520]                   	PUSH	LC69
  3037 00001AEE E8 FFFFF672                     	CALL	_print
  3038 00001AF3 E8 [00000000]                   	CALL	_get_cs
  3039 00001AF8 98                              	CWDE
  3040 00001AF9 50                              	PUSH	EAX
  3041 00001AFA E8 FFFFFD16                     	CALL	_print_32bit_hex
  3042 00001AFF 68 [00000539]                   	PUSH	LC74
  3043 00001B04 E8 FFFFF65C                     	CALL	_print
  3044 00001B09 6A 02                           	PUSH	2
  3045 00001B0B E8 FFFFFBE8                     	CALL	_sleep
  3046 00001B10 68 [00000580]                   	PUSH	LC75
  3047 00001B15 E8 FFFFF64B                     	CALL	_print
  3048 00001B1A 68 [00000585]                   	PUSH	LC76
  3049 00001B1F E8 FFFFF641                     	CALL	_print
  3050 00001B24 E8 [00000000]                   	CALL	_RAND
  3051 00001B29 BA 00000064                     	MOV	EDX,100
  3052 00001B2E 89 D1                           	MOV	ECX,EDX
  3053 00001B30 66 99                           	CWD
  3054 00001B32 66 F7 F9                        	IDIV	CX
  3055 00001B35 0F BF D2                        	MOVSX	EDX,DX
  3056 00001B38 42                              	INC	EDX
  3057 00001B39 52                              	PUSH	EDX
  3058 00001B3A E8 FFFFF4A0                     	CALL	_itoa
  3059 00001B3F 89 04 24                        	MOV	DWORD [ESP],EAX
  3060 00001B42 E8 FFFFF61E                     	CALL	_print
  3061 00001B47 83 C4 20                        	ADD	ESP,32
  3062 00001B4A 68 [000002EF]                   	PUSH	LC21
  3063 00001B4F E8 FFFFF611                     	CALL	_print
  3064 00001B54 6A 01                           	PUSH	1
  3065 00001B56 E8 FFFFFB9D                     	CALL	_sleep
  3066 00001B5B 68 [00000599]                   	PUSH	LC77
  3067 00001B60 E8 FFFFF600                     	CALL	_print
  3068 00001B65 6A 0A                           	PUSH	10
  3069 00001B67 E8 00000092                     	CALL	_set_color
  3070 00001B6C 6A 01                           	PUSH	1
  3071 00001B6E E8 FFFFFB85                     	CALL	_sleep
  3072 00001B73 6A 07                           	PUSH	7
  3073 00001B75 E8 00000084                     	CALL	_set_color
  3074 00001B7A 68 [000005B3]                   	PUSH	LC78
  3075 00001B7F E8 FFFFF5E1                     	CALL	_print
  3076 00001B84 6A 01                           	PUSH	1
  3077 00001B86 E8 FFFFFB6D                     	CALL	_sleep
  3078 00001B8B 83 C4 20                        	ADD	ESP,32
  3079 00001B8E 68 [00000110]                   	PUSH	LC3
  3080 00001B93 E8 FFFFF20B                     	CALL	_fopen
  3081 00001B98 89 C3                           	MOV	EBX,EAX
  3082 00001B9A 50                              	PUSH	EAX
  3083 00001B9B E8 FFFFF5E0                     	CALL	_getlength
  3084 00001BA0 59                              	POP	ECX
  3085 00001BA1 5E                              	POP	ESI
  3086 00001BA2 83 F8 07                        	CMP	EAX,7
  3087 00001BA5 7E 3E                           	JLE	L594
  3088 00001BA7 8A 03                           	MOV	AL,BYTE [EBX]
  3089 00001BA9 A2 [00000660]                   	MOV	BYTE [_user],AL
  3090 00001BAE 8A 43 01                        	MOV	AL,BYTE [1+EBX]
  3091 00001BB1 A2 [00000661]                   	MOV	BYTE [_user+1],AL
  3092 00001BB6 8A 43 02                        	MOV	AL,BYTE [2+EBX]
  3093 00001BB9 A2 [00000662]                   	MOV	BYTE [_user+2],AL
  3094 00001BBE 8A 43 03                        	MOV	AL,BYTE [3+EBX]
  3095 00001BC1 A2 [00000663]                   	MOV	BYTE [_user+3],AL
  3096 00001BC6 8A 43 04                        	MOV	AL,BYTE [4+EBX]
  3097 00001BC9 A2 [00000664]                   	MOV	BYTE [_user+4],AL
  3098 00001BCE 8A 43 05                        	MOV	AL,BYTE [5+EBX]
  3099 00001BD1 A2 [00000665]                   	MOV	BYTE [_user+5],AL
  3100 00001BD6 8A 43 06                        	MOV	AL,BYTE [6+EBX]
  3101 00001BD9 A2 [00000666]                   	MOV	BYTE [_user+6],AL
  3102 00001BDE                                 L593:
  3103 00001BDE 8D 65 F8                        	LEA	ESP,DWORD [-8+EBP]
  3104 00001BE1 5B                              	POP	EBX
  3105 00001BE2 5E                              	POP	ESI
  3106 00001BE3 5D                              	POP	EBP
  3107 00001BE4 C3                              	RET
  3108 00001BE5                                 L594:
  3109 00001BE5 31 F6                           	XOR	ESI,ESI
  3110 00001BE7                                 L596:
  3111 00001BE7 53                              	PUSH	EBX
  3112 00001BE8 E8 FFFFF593                     	CALL	_getlength
  3113 00001BED 5A                              	POP	EDX
  3114 00001BEE 39 C6                           	CMP	ESI,EAX
  3115 00001BF0 7D EC                           	JGE	L593
  3116 00001BF2 8A 04 1E                        	MOV	AL,BYTE [ESI+EBX*1]
  3117 00001BF5 88 86 [00000660]                	MOV	BYTE [_user+ESI],AL
  3118 00001BFB 46                              	INC	ESI
  3119 00001BFC EB E9                           	JMP	L596
  3120 00001BFE                                 	GLOBAL	_set_color
  3121 00001BFE                                 _set_color:
  3122 00001BFE 55                              	PUSH	EBP
  3123 00001BFF 89 E5                           	MOV	EBP,ESP
  3124 00001C01 57                              	PUSH	EDI
  3125 00001C02 56                              	PUSH	ESI
  3126 00001C03 53                              	PUSH	EBX
  3127 00001C04 BB 00000001                     	MOV	EBX,1
  3128 00001C09 50                              	PUSH	EAX
  3129 00001C0A 50                              	PUSH	EAX
  3130 00001C0B 8A 45 08                        	MOV	AL,BYTE [8+EBP]
  3131 00001C0E 88 45 F3                        	MOV	BYTE [-13+EBP],AL
  3132 00001C11                                 L612:
  3133 00001C11 8D 8B 000B8000                  	LEA	ECX,DWORD [753664+EBX]
  3134 00001C17 BE 00000018                     	MOV	ESI,24
  3135 00001C1C                                 L611:
  3136 00001C1C BA 00000002                     	MOV	EDX,2
  3137 00001C21 89 D8                           	MOV	EAX,EBX
  3138 00001C23 89 D7                           	MOV	EDI,EDX
  3139 00001C25 99                              	CDQ
  3140 00001C26 F7 FF                           	IDIV	EDI
  3141 00001C28 4A                              	DEC	EDX
  3142 00001C29 74 19                           	JE	L617
  3143 00001C2B                                 L608:
  3144 00001C2B 81 C1 000000A0                  	ADD	ECX,160
  3145 00001C31 4E                              	DEC	ESI
  3146 00001C32 79 E8                           	JNS	L611
  3147 00001C34 43                              	INC	EBX
  3148 00001C35 81 FB 0000009F                  	CMP	EBX,159
  3149 00001C3B 7E D4                           	JLE	L612
  3150 00001C3D 5F                              	POP	EDI
  3151 00001C3E 58                              	POP	EAX
  3152 00001C3F 5B                              	POP	EBX
  3153 00001C40 5E                              	POP	ESI
  3154 00001C41 5F                              	POP	EDI
  3155 00001C42 5D                              	POP	EBP
  3156 00001C43 C3                              	RET
  3157 00001C44                                 L617:
  3158 00001C44 8A 45 F3                        	MOV	AL,BYTE [-13+EBP]
  3159 00001C47 88 01                           	MOV	BYTE [ECX],AL
  3160 00001C49 EB E0                           	JMP	L608
  3161 00001C4B                                 	GLOBAL	_get_this_color
  3162 00001C4B                                 _get_this_color:
  3163 00001C4B 55                              	PUSH	EBP
  3164 00001C4C 0F BE 05 000B8001               	MOVSX	EAX,BYTE [753665]
  3165 00001C53 89 E5                           	MOV	EBP,ESP
  3166 00001C55 5D                              	POP	EBP
  3167 00001C56 C3                              	RET
  3168 00001C57                                 	GLOBAL	_htoi
  3169 00001C57                                 _htoi:
  3170 00001C57 55                              	PUSH	EBP
  3171 00001C58 31 D2                           	XOR	EDX,EDX
  3172 00001C5A 89 E5                           	MOV	EBP,ESP
  3173 00001C5C 56                              	PUSH	ESI
  3174 00001C5D 53                              	PUSH	EBX
  3175 00001C5E 31 DB                           	XOR	EBX,EBX
  3176 00001C60 8B 75 08                        	MOV	ESI,DWORD [8+EBP]
  3177 00001C63 8A 06                           	MOV	AL,BYTE [ESI]
  3178 00001C65 84 C0                           	TEST	AL,AL
  3179 00001C67 74 2A                           	JE	L621
  3180 00001C69 3C 0A                           	CMP	AL,10
  3181 00001C6B 74 26                           	JE	L621
  3182 00001C6D                                 L633:
  3183 00001C6D 80 3C 33 30                     	CMP	BYTE [EBX+ESI*1],48
  3184 00001C71 74 51                           	JE	L635
  3185 00001C73                                 L624:
  3186 00001C73 8A 0C 33                        	MOV	CL,BYTE [EBX+ESI*1]
  3187 00001C76 8D 41 D0                        	LEA	EAX,DWORD [-48+ECX]
  3188 00001C79 3C 09                           	CMP	AL,9
  3189 00001C7B 77 1C                           	JA	L627
  3190 00001C7D C1 E2 04                        	SAL	EDX,4
  3191 00001C80 0F BE C1                        	MOVSX	EAX,CL
  3192 00001C83 8D 54 10 D0                     	LEA	EDX,DWORD [-48+EAX+EDX*1]
  3193 00001C87                                 L628:
  3194 00001C87 43                              	INC	EBX
  3195 00001C88 8A 04 33                        	MOV	AL,BYTE [EBX+ESI*1]
  3196 00001C8B 84 C0                           	TEST	AL,AL
  3197 00001C8D 74 04                           	JE	L621
  3198 00001C8F 3C 0A                           	CMP	AL,10
  3199 00001C91 75 DA                           	JNE	L633
  3200 00001C93                                 L621:
  3201 00001C93 89 D0                           	MOV	EAX,EDX
  3202 00001C95                                 L619:
  3203 00001C95 5B                              	POP	EBX
  3204 00001C96 5E                              	POP	ESI
  3205 00001C97 5D                              	POP	EBP
  3206 00001C98 C3                              	RET
  3207 00001C99                                 L627:
  3208 00001C99 8D 41 9F                        	LEA	EAX,DWORD [-97+ECX]
  3209 00001C9C 3C 05                           	CMP	AL,5
  3210 00001C9E 77 0C                           	JA	L629
  3211 00001CA0 C1 E2 04                        	SAL	EDX,4
  3212 00001CA3 0F BE C1                        	MOVSX	EAX,CL
  3213 00001CA6 8D 54 10 A9                     	LEA	EDX,DWORD [-87+EAX+EDX*1]
  3214 00001CAA EB DB                           	JMP	L628
  3215 00001CAC                                 L629:
  3216 00001CAC 8D 41 BF                        	LEA	EAX,DWORD [-65+ECX]
  3217 00001CAF 3C 05                           	CMP	AL,5
  3218 00001CB1 77 0C                           	JA	L631
  3219 00001CB3 C1 E2 04                        	SAL	EDX,4
  3220 00001CB6 0F BE C1                        	MOVSX	EAX,CL
  3221 00001CB9 8D 54 10 C9                     	LEA	EDX,DWORD [-55+EAX+EDX*1]
  3222 00001CBD EB C8                           	JMP	L628
  3223 00001CBF                                 L631:
  3224 00001CBF 83 C8 FF                        	OR	EAX,-1
  3225 00001CC2 EB D1                           	JMP	L619
  3226 00001CC4                                 L635:
  3227 00001CC4 8A 44 33 01                     	MOV	AL,BYTE [1+EBX+ESI*1]
  3228 00001CC8 3C 78                           	CMP	AL,120
  3229 00001CCA 74 04                           	JE	L626
  3230 00001CCC 3C 58                           	CMP	AL,88
  3231 00001CCE 75 A3                           	JNE	L624
  3232 00001CD0                                 L626:
  3233 00001CD0 83 C3 02                        	ADD	EBX,2
  3234 00001CD3 EB 9E                           	JMP	L624
  3235                                          [SECTION .data]
  3236 000005E2                                 LC79:
  3237 000005E2 53 75 6E 00                     	DB	"Sun",0x00
  3238 000005E6                                 LC85:
  3239 000005E6 53 61 74 00                     	DB	"Sat",0x00
  3240 000005EA                                 LC84:
  3241 000005EA 46 72 69 00                     	DB	"Fri",0x00
  3242 000005EE                                 LC83:
  3243 000005EE 54 68 75 00                     	DB	"Thu",0x00
  3244 000005F2                                 LC82:
  3245 000005F2 57 65 64 00                     	DB	"Wed",0x00
  3246 000005F6                                 LC81:
  3247 000005F6 54 75 65 00                     	DB	"Tue",0x00
  3248 000005FA                                 LC80:
  3249 000005FA 4D 6F 6E 00                     	DB	"Mon",0x00
  3250                                          [SECTION .text]
  3251 00001CD5                                 	GLOBAL	_get_day_eng
  3252 00001CD5                                 _get_day_eng:
  3253 00001CD5 55                              	PUSH	EBP
  3254 00001CD6 89 E5                           	MOV	EBP,ESP
  3255 00001CD8 E8 FFFFE788                     	CALL	_get_day_of_week
  3256 00001CDD 85 C0                           	TEST	EAX,EAX
  3257 00001CDF 75 0C                           	JNE	L637
  3258 00001CE1 68 [000005E2]                   	PUSH	LC79
  3259 00001CE6                                 L644:
  3260 00001CE6 E8 FFFFF47A                     	CALL	_print
  3261 00001CEB                                 L636:
  3262 00001CEB C9                              	LEAVE
  3263 00001CEC C3                              	RET
  3264 00001CED                                 L637:
  3265 00001CED E8 FFFFE773                     	CALL	_get_day_of_week
  3266 00001CF2 48                              	DEC	EAX
  3267 00001CF3 74 55                           	JE	L645
  3268 00001CF5 E8 FFFFE76B                     	CALL	_get_day_of_week
  3269 00001CFA 83 F8 02                        	CMP	EAX,2
  3270 00001CFD 74 44                           	JE	L646
  3271 00001CFF E8 FFFFE761                     	CALL	_get_day_of_week
  3272 00001D04 83 F8 03                        	CMP	EAX,3
  3273 00001D07 74 33                           	JE	L647
  3274 00001D09 E8 FFFFE757                     	CALL	_get_day_of_week
  3275 00001D0E 83 F8 04                        	CMP	EAX,4
  3276 00001D11 74 22                           	JE	L648
  3277 00001D13 E8 FFFFE74D                     	CALL	_get_day_of_week
  3278 00001D18 83 F8 05                        	CMP	EAX,5
  3279 00001D1B 74 11                           	JE	L649
  3280 00001D1D E8 FFFFE743                     	CALL	_get_day_of_week
  3281 00001D22 83 F8 06                        	CMP	EAX,6
  3282 00001D25 75 C4                           	JNE	L636
  3283 00001D27 68 [000005E6]                   	PUSH	LC85
  3284 00001D2C EB B8                           	JMP	L644
  3285 00001D2E                                 L649:
  3286 00001D2E 68 [000005EA]                   	PUSH	LC84
  3287 00001D33 EB B1                           	JMP	L644
  3288 00001D35                                 L648:
  3289 00001D35 68 [000005EE]                   	PUSH	LC83
  3290 00001D3A EB AA                           	JMP	L644
  3291 00001D3C                                 L647:
  3292 00001D3C 68 [000005F2]                   	PUSH	LC82
  3293 00001D41 EB A3                           	JMP	L644
  3294 00001D43                                 L646:
  3295 00001D43 68 [000005F6]                   	PUSH	LC81
  3296 00001D48 EB 9C                           	JMP	L644
  3297 00001D4A                                 L645:
  3298 00001D4A 68 [000005FA]                   	PUSH	LC80
  3299 00001D4F EB 95                           	JMP	L644
  3300 00001D51                                 	GLOBAL	_print_date
  3301 00001D51                                 _print_date:
  3302 00001D51 55                              	PUSH	EBP
  3303 00001D52 89 E5                           	MOV	EBP,ESP
  3304 00001D54 E8 FFFFE758                     	CALL	_get_year
  3305 00001D59 50                              	PUSH	EAX
  3306 00001D5A E8 FFFFF280                     	CALL	_itoa
  3307 00001D5F 89 04 24                        	MOV	DWORD [ESP],EAX
  3308 00001D62 E8 FFFFF3FE                     	CALL	_print
  3309 00001D67 68 [00000533]                   	PUSH	LC71
  3310 00001D6C E8 FFFFF3F4                     	CALL	_print
  3311 00001D71 E8 FFFFE715                     	CALL	_get_mon_hex
  3312 00001D76 50                              	PUSH	EAX
  3313 00001D77 E8 FFFFF263                     	CALL	_itoa
  3314 00001D7C 89 04 24                        	MOV	DWORD [ESP],EAX
  3315 00001D7F E8 FFFFF3E1                     	CALL	_print
  3316 00001D84 68 [00000533]                   	PUSH	LC71
  3317 00001D89 E8 FFFFF3D7                     	CALL	_print
  3318 00001D8E E8 FFFFE6AC                     	CALL	_get_day_of_month
  3319 00001D93 50                              	PUSH	EAX
  3320 00001D94 E8 FFFFF246                     	CALL	_itoa
  3321 00001D99 89 04 24                        	MOV	DWORD [ESP],EAX
  3322 00001D9C E8 FFFFF3C4                     	CALL	_print
  3323 00001DA1 68 [00000533]                   	PUSH	LC71
  3324 00001DA6 E8 FFFFF3BA                     	CALL	_print
  3325 00001DAB E8 FFFFFF25                     	CALL	_get_day_eng
  3326 00001DB0 68 [00000535]                   	PUSH	LC72
  3327 00001DB5 E8 FFFFF3AB                     	CALL	_print
  3328 00001DBA E8 FFFFE60E                     	CALL	_get_hour_hex
  3329 00001DBF 50                              	PUSH	EAX
  3330 00001DC0 E8 FFFFF21A                     	CALL	_itoa
  3331 00001DC5 89 04 24                        	MOV	DWORD [ESP],EAX
  3332 00001DC8 E8 FFFFF398                     	CALL	_print
  3333 00001DCD 83 C4 20                        	ADD	ESP,32
  3334 00001DD0 68 [00000537]                   	PUSH	LC73
  3335 00001DD5 E8 FFFFF38B                     	CALL	_print
  3336 00001DDA E8 FFFFE614                     	CALL	_get_min_hex
  3337 00001DDF 50                              	PUSH	EAX
  3338 00001DE0 E8 FFFFF1FA                     	CALL	_itoa
  3339 00001DE5 89 04 24                        	MOV	DWORD [ESP],EAX
  3340 00001DE8 E8 FFFFF378                     	CALL	_print
  3341 00001DED 68 [00000537]                   	PUSH	LC73
  3342 00001DF2 E8 FFFFF36E                     	CALL	_print
  3343 00001DF7 E8 FFFFE61D                     	CALL	_get_sec_hex
  3344 00001DFC 50                              	PUSH	EAX
  3345 00001DFD E8 FFFFF1DD                     	CALL	_itoa
  3346 00001E02 89 04 24                        	MOV	DWORD [ESP],EAX
  3347 00001E05 E8 FFFFF35B                     	CALL	_print
  3348 00001E0A C9                              	LEAVE
  3349 00001E0B C3                              	RET
  3350 00001E0C                                 	GLOBAL	_gotoxy
  3351 00001E0C                                 _gotoxy:
  3352 00001E0C 55                              	PUSH	EBP
  3353 00001E0D 89 E5                           	MOV	EBP,ESP
  3354 00001E0F 8B 4D 08                        	MOV	ECX,DWORD [8+EBP]
  3355 00001E12 8B 55 0C                        	MOV	EDX,DWORD [12+EBP]
  3356 00001E15 89 15 [000000BC]                	MOV	DWORD [_y],EDX
  3357 00001E1B 89 0D [000000C0]                	MOV	DWORD [_cons_x],ECX
  3358 00001E21 89 15 [000000C4]                	MOV	DWORD [_cons_y],EDX
  3359 00001E27 8D 04 09                        	LEA	EAX,DWORD [ECX+ECX*1]
  3360 00001E2A 0F BF D2                        	MOVSX	EDX,DX
  3361 00001E2D 0F BF C9                        	MOVSX	ECX,CX
  3362 00001E30 A3 [000000B8]                   	MOV	DWORD [_x],EAX
  3363 00001E35 89 4D 08                        	MOV	DWORD [8+EBP],ECX
  3364 00001E38 89 55 0C                        	MOV	DWORD [12+EBP],EDX
  3365 00001E3B 5D                              	POP	EBP
  3366 00001E3C E9 FFFFF7F5                     	JMP	_Move_Cursor
  3367 00001E41                                 	GLOBAL	_getch
  3368 00001E41                                 _getch:
  3369 00001E41 55                              	PUSH	EBP
  3370 00001E42 89 E5                           	MOV	EBP,ESP
  3371 00001E44 E8 FFFFF62C                     	CALL	_input_char_inSM
  3372 00001E49 83 3D [000000CC] 00             	CMP	DWORD [_caps_lock],0
  3373 00001E50 75 22                           	JNE	L653
  3374 00001E52 0F BE C0                        	MOVSX	EAX,AL
  3375 00001E55 8A 80 [00000054]                	MOV	AL,BYTE [_keytable1+EAX]
  3376 00001E5B 0F BE D0                        	MOVSX	EDX,AL
  3377 00001E5E 3C 46                           	CMP	AL,70
  3378 00001E60 74 04                           	JE	L660
  3379 00001E62                                 L652:
  3380 00001E62 89 D0                           	MOV	EAX,EDX
  3381 00001E64 5D                              	POP	EBP
  3382 00001E65 C3                              	RET
  3383 00001E66                                 L660:
  3384 00001E66 C7 05 [000000CC] 00000001       	MOV	DWORD [_caps_lock],1
  3385 00001E70                                 L659:
  3386 00001E70 31 D2                           	XOR	EDX,EDX
  3387 00001E72 EB EE                           	JMP	L652
  3388 00001E74                                 L653:
  3389 00001E74 0F BE C0                        	MOVSX	EAX,AL
  3390 00001E77 8A 80 [00000000]                	MOV	AL,BYTE [_keytable+EAX]
  3391 00001E7D 0F BE D0                        	MOVSX	EDX,AL
  3392 00001E80 3C 61                           	CMP	AL,97
  3393 00001E82 75 DE                           	JNE	L652
  3394 00001E84 C7 05 [000000CC] 00000000       	MOV	DWORD [_caps_lock],0
  3395 00001E8E EB E0                           	JMP	L659
  3396 00001E90                                 	GLOBAL	_Print_Flashing_text
  3397 00001E90                                 _Print_Flashing_text:
  3398 00001E90 55                              	PUSH	EBP
  3399 00001E91 89 E5                           	MOV	EBP,ESP
  3400 00001E93 57                              	PUSH	EDI
  3401 00001E94 56                              	PUSH	ESI
  3402 00001E95 53                              	PUSH	EBX
  3403 00001E96 50                              	PUSH	EAX
  3404 00001E97 50                              	PUSH	EAX
  3405 00001E98 FF 75 08                        	PUSH	DWORD [8+EBP]
  3406 00001E9B E8 FFFFF2E0                     	CALL	_getlength
  3407 00001EA0 8B 75 0C                        	MOV	ESI,DWORD [12+EBP]
  3408 00001EA3 8B 3D [000000BC]                	MOV	EDI,DWORD [_y]
  3409 00001EA9 85 F6                           	TEST	ESI,ESI
  3410 00001EAB 89 45 F0                        	MOV	DWORD [-16+EBP],EAX
  3411 00001EAE A1 [000000B8]                   	MOV	EAX,DWORD [_x]
  3412 00001EB3 89 45 EC                        	MOV	DWORD [-20+EBP],EAX
  3413 00001EB6 58                              	POP	EAX
  3414 00001EB7 75 08                           	JNE	L670
  3415 00001EB9                                 L672:
  3416 00001EB9 8D 65 F4                        	LEA	ESP,DWORD [-12+EBP]
  3417 00001EBC 5B                              	POP	EBX
  3418 00001EBD 5E                              	POP	ESI
  3419 00001EBE 5F                              	POP	EDI
  3420 00001EBF 5D                              	POP	EBP
  3421 00001EC0 C3                              	RET
  3422 00001EC1                                 L670:
  3423 00001EC1 FF 75 08                        	PUSH	DWORD [8+EBP]
  3424 00001EC4 E8 FFFFF29C                     	CALL	_print
  3425 00001EC9 57                              	PUSH	EDI
  3426 00001ECA FF 75 EC                        	PUSH	DWORD [-20+EBP]
  3427 00001ECD E8 FFFFFF3A                     	CALL	_gotoxy
  3428 00001ED2 FF 75 10                        	PUSH	DWORD [16+EBP]
  3429 00001ED5 E8 FFFFF84F                     	CALL	_sleep_m
  3430 00001EDA 83 C4 10                        	ADD	ESP,16
  3431 00001EDD 83 7D F0 00                     	CMP	DWORD [-16+EBP],0
  3432 00001EE1 7E 11                           	JLE	L674
  3433 00001EE3 8B 5D F0                        	MOV	EBX,DWORD [-16+EBP]
  3434 00001EE6                                 L669:
  3435 00001EE6 68 [00000535]                   	PUSH	LC72
  3436 00001EEB E8 FFFFF275                     	CALL	_print
  3437 00001EF0 4B                              	DEC	EBX
  3438 00001EF1 58                              	POP	EAX
  3439 00001EF2 75 F2                           	JNE	L669
  3440 00001EF4                                 L674:
  3441 00001EF4 57                              	PUSH	EDI
  3442 00001EF5 FF 75 EC                        	PUSH	DWORD [-20+EBP]
  3443 00001EF8 E8 FFFFFF0F                     	CALL	_gotoxy
  3444 00001EFD FF 75 10                        	PUSH	DWORD [16+EBP]
  3445 00001F00 E8 FFFFF824                     	CALL	_sleep_m
  3446 00001F05 83 C4 0C                        	ADD	ESP,12
  3447 00001F08 4E                              	DEC	ESI
  3448 00001F09 75 B6                           	JNE	L670
  3449 00001F0B EB AC                           	JMP	L672
  3450 00001F0D                                 	GLOBAL	_cmd_app
  3451 00001F0D                                 _cmd_app:
  3452 00001F0D 55                              	PUSH	EBP
  3453 00001F0E 89 E5                           	MOV	EBP,ESP
  3454 00001F10 57                              	PUSH	EDI
  3455 00001F11 56                              	PUSH	ESI
  3456 00001F12 53                              	PUSH	EBX
  3457 00001F13 31 DB                           	XOR	EBX,EBX
  3458 00001F15 83 EC 24                        	SUB	ESP,36
  3459 00001F18 8B 75 0C                        	MOV	ESI,DWORD [12+EBP]
  3460 00001F1B E8 [00000000]                   	CALL	_task_now
  3461 00001F20 89 45 D0                        	MOV	DWORD [-48+EBP],EAX
  3462 00001F23                                 L681:
  3463 00001F23 8A 04 33                        	MOV	AL,BYTE [EBX+ESI*1]
  3464 00001F26 3C 20                           	CMP	AL,32
  3465 00001F28 7E 0A                           	JLE	L677
  3466 00001F2A 88 44 1D D4                     	MOV	BYTE [-44+EBP+EBX*1],AL
  3467 00001F2E 43                              	INC	EBX
  3468 00001F2F 83 FB 0C                        	CMP	EBX,12
  3469 00001F32 7E EF                           	JLE	L681
  3470 00001F34                                 L677:
  3471 00001F34 68 000000E0                     	PUSH	224
  3472 00001F39 8D 75 D4                        	LEA	ESI,DWORD [-44+EBP]
  3473 00001F3C 68 00102600                     	PUSH	1058304
  3474 00001F41 56                              	PUSH	ESI
  3475 00001F42 C6 44 1D D4 00                  	MOV	BYTE [-44+EBP+EBX*1],0
  3476 00001F47 E8 [00000000]                   	CALL	_file_search
  3477 00001F4C 83 C4 0C                        	ADD	ESP,12
  3478 00001F4F 89 C7                           	MOV	EDI,EAX
  3479 00001F51 85 C0                           	TEST	EAX,EAX
  3480 00001F53 0F 84 000000B7                  	JE	L686
  3481 00001F59                                 L685:
  3482 00001F59 FF 77 1C                        	PUSH	DWORD [28+EDI]
  3483 00001F5C 68 003C0000                     	PUSH	3932160
  3484 00001F61 E8 [00000000]                   	CALL	_memman_alloc_4k
  3485 00001F66 68 00010000                     	PUSH	65536
  3486 00001F6B 68 003C0000                     	PUSH	3932160
  3487 00001F70 89 C3                           	MOV	EBX,EAX
  3488 00001F72 E8 [00000000]                   	CALL	_memman_alloc_4k
  3489 00001F77 89 1D 00000FE8                  	MOV	DWORD [4072],EBX
  3490 00001F7D 68 00103E00                     	PUSH	1064448
  3491 00001F82 89 C6                           	MOV	ESI,EAX
  3492 00001F84 FF 75 08                        	PUSH	DWORD [8+EBP]
  3493 00001F87 53                              	PUSH	EBX
  3494 00001F88 FF 77 1C                        	PUSH	DWORD [28+EDI]
  3495 00001F8B 0F B7 47 1A                     	MOVZX	EAX,WORD [26+EDI]
  3496 00001F8F 50                              	PUSH	EAX
  3497 00001F90 E8 [00000000]                   	CALL	_file_loadfile
  3498 00001F95 83 C4 24                        	ADD	ESP,36
  3499 00001F98 68 0000409A                     	PUSH	16538
  3500 00001F9D 53                              	PUSH	EBX
  3501 00001F9E 8B 47 1C                        	MOV	EAX,DWORD [28+EDI]
  3502 00001FA1 48                              	DEC	EAX
  3503 00001FA2 50                              	PUSH	EAX
  3504 00001FA3 68 00271F58                     	PUSH	2563928
  3505 00001FA8 E8 FFFFE236                     	CALL	_set_segmdesc
  3506 00001FAD 68 00004092                     	PUSH	16530
  3507 00001FB2 56                              	PUSH	ESI
  3508 00001FB3 68 0000FFFF                     	PUSH	65535
  3509 00001FB8 68 00271F60                     	PUSH	2563936
  3510 00001FBD E8 FFFFE221                     	CALL	_set_segmdesc
  3511 00001FC2 8B 45 D0                        	MOV	EAX,DWORD [-48+EBP]
  3512 00001FC5 83 C4 20                        	ADD	ESP,32
  3513 00001FC8 83 C0 30                        	ADD	EAX,48
  3514 00001FCB 50                              	PUSH	EAX
  3515 00001FCC 68 00001F60                     	PUSH	8032
  3516 00001FD1 68 00010000                     	PUSH	65536
  3517 00001FD6 68 00001F58                     	PUSH	8024
  3518 00001FDB 6A 00                           	PUSH	0
  3519 00001FDD E8 [00000000]                   	CALL	_start_app
  3520 00001FE2 FF 77 1C                        	PUSH	DWORD [28+EDI]
  3521 00001FE5 53                              	PUSH	EBX
  3522 00001FE6 68 003C0000                     	PUSH	3932160
  3523 00001FEB E8 [00000000]                   	CALL	_memman_free_4k
  3524 00001FF0 83 C4 20                        	ADD	ESP,32
  3525 00001FF3 68 00010000                     	PUSH	65536
  3526 00001FF8 56                              	PUSH	ESI
  3527 00001FF9 68 003C0000                     	PUSH	3932160
  3528 00001FFE E8 [00000000]                   	CALL	_memman_free_4k
  3529 00002003 B8 00000001                     	MOV	EAX,1
  3530 00002008                                 L675:
  3531 00002008 8D 65 F4                        	LEA	ESP,DWORD [-12+EBP]
  3532 0000200B 5B                              	POP	EBX
  3533 0000200C 5E                              	POP	ESI
  3534 0000200D 5F                              	POP	EDI
  3535 0000200E 5D                              	POP	EBP
  3536 0000200F C3                              	RET
  3537 00002010                                 L686:
  3538 00002010 80 7C 1D D3 2E                  	CMP	BYTE [-45+EBP+EBX*1],46
  3539 00002015 74 2E                           	JE	L682
  3540 00002017 68 000000E0                     	PUSH	224
  3541 0000201C 68 00102600                     	PUSH	1058304
  3542 00002021 56                              	PUSH	ESI
  3543 00002022 C6 44 1D D4 2E                  	MOV	BYTE [-44+EBP+EBX*1],46
  3544 00002027 C6 44 1D D5 48                  	MOV	BYTE [-43+EBP+EBX*1],72
  3545 0000202C C6 44 1D D6 52                  	MOV	BYTE [-42+EBP+EBX*1],82
  3546 00002031 C6 44 1D D7 42                  	MOV	BYTE [-41+EBP+EBX*1],66
  3547 00002036 C6 44 1D D8 00                  	MOV	BYTE [-40+EBP+EBX*1],0
  3548 0000203B E8 [00000000]                   	CALL	_file_search
  3549 00002040 83 C4 0C                        	ADD	ESP,12
  3550 00002043 89 C7                           	MOV	EDI,EAX
  3551 00002045                                 L682:
  3552 00002045 85 FF                           	TEST	EDI,EDI
  3553 00002047 0F 85 FFFFFF0C                  	JNE	L685
  3554 0000204D 31 C0                           	XOR	EAX,EAX
  3555 0000204F EB B7                           	JMP	L675
  3556 00002051                                 	GLOBAL	_get_x
  3557 00002051                                 _get_x:
  3558 00002051 55                              	PUSH	EBP
  3559 00002052 A1 [000000B8]                   	MOV	EAX,DWORD [_x]
  3560 00002057 89 E5                           	MOV	EBP,ESP
  3561 00002059 5D                              	POP	EBP
  3562 0000205A C3                              	RET
  3563 0000205B                                 	GLOBAL	_get_y
  3564 0000205B                                 _get_y:
  3565 0000205B 55                              	PUSH	EBP
  3566 0000205C A1 [000000BC]                   	MOV	EAX,DWORD [_y]
  3567 00002061 89 E5                           	MOV	EBP,ESP
  3568 00002063 5D                              	POP	EBP
  3569 00002064 C3                              	RET
  3570                                          [SECTION .data]
  3571 000005FE                                 LC86:
  3572 000005FE 0A 0A 0A 0A 0A 0A 0A 0A 0A 0A   	DB	0x0A,0x0A,0x0A,0x0A,0x0A,0x0A,0x0A,0x0A,0x0A,0x0A,0x0A,"                       Now you can safe to shutdown!",0x0A,0x00
       00000608 0A 20 20 20 20 20 20 20 20 20 
       00000612 20 20 20 20 20 20 20 20 20 20 
       0000061C 20 20 20 20 4E 6F 77 20 79 6F 
       00000626 75 20 63 61 6E 20 73 61 66 65 
       00000630 20 74 6F 20 73 68 75 74 64 6F 
       0000063A 77 6E 21 0A 00 
  3573                                          [SECTION .text]
  3574 00002065                                 	GLOBAL	_HariMain
  3575 00002065                                 _HariMain:
  3576 00002065 55                              	PUSH	EBP
  3577 00002066 89 E5                           	MOV	EBP,ESP
  3578 00002068 83 EC 20                        	SUB	ESP,32
  3579 0000206B E8 FFFFDF90                     	CALL	_init_gdtidt
  3580 00002070 E8 FFFFE1E4                     	CALL	_init_pic
  3581 00002075 E8 [00000000]                   	CALL	_io_sti
  3582 0000207A E8 [00000000]                   	CALL	_init_pit
  3583 0000207F 68 000000F8                     	PUSH	248
  3584 00002084 6A 21                           	PUSH	33
  3585 00002086 E8 [00000000]                   	CALL	_io_out8
  3586 0000208B 8D 45 E0                        	LEA	EAX,DWORD [-32+EBP]
  3587 0000208E 50                              	PUSH	EAX
  3588 0000208F 6A 20                           	PUSH	32
  3589 00002091 68 [00000640]                   	PUSH	_keyfifo
  3590 00002096 E8 FFFFE253                     	CALL	_fifo8_init
  3591 0000209B E8 FFFFF527                     	CALL	_clear
  3592 000020A0 E8 FFFFE457                     	CALL	_shell
  3593 000020A5 E8 FFFFF51D                     	CALL	_clear
  3594 000020AA 68 [000005FE]                   	PUSH	LC86
  3595 000020AF E8 FFFFF0B1                     	CALL	_print
  3596 000020B4 83 C4 18                        	ADD	ESP,24
  3597 000020B7                                 L690:
  3598 000020B7 EB FE                           	JMP	L690
  3599 000020B9                                 	GLOBAL	_keyfifo
  3600                                          [SECTION .data]
  3601 0000063F 00                              	ALIGNB	16
  3602 00000640                                 _keyfifo:
  3603 00000640 00 00 00 00 00 00 00 00 00 00   	RESB	24
       0000064A 00 00 00 00 00 00 00 00 00 00 
       00000654 00 00 00 00 
  3604 00000658                                 	GLOBAL	_name_1
  3605                                          [SECTION .data]
  3606 00000658                                 	ALIGNB	4
  3607 00000658                                 _name_1:
  3608 00000658 00 00 00 00                     	RESB	4
  3609 0000065C                                 	GLOBAL	_user
  3610                                          [SECTION .data]
  3611 0000065C 00 00 00 00                     	ALIGNB	8
  3612 00000660                                 _user:
  3613 00000660 00 00 00 00 00 00 00 00         	RESB	8
  3614 00000668                                 	GLOBAL	_string
  3615                                          [SECTION .data]
  3616 00000668                                 	ALIGNB	4
  3617 00000668                                 _string:
  3618 00000668 00 00 00 00                     	RESB	4
  3619 0000066C                                 	GLOBAL	_NULL_S
  3620                                          [SECTION .data]
  3621 0000066C                                 	ALIGNB	4
  3622 0000066C                                 _NULL_S:
  3623 0000066C 00 00 00 00                     	RESB	4
